

Microchip MPLAB XC8 Assembler V2.46 build 20240104201356 
                                                                                               Tue Apr 02 19:09:15 2024

Microchip MPLAB XC8 C Compiler v2.46 (Free license) build 20240104201356 Og1 
     1                           	processor	16F13145
     2                           	pagewidth 120
     3                           	opt	flic
     4                           	psect	cinit,global,class=CODE,merge=1,delta=2
     5                           	psect	bssCOMMON,global,class=COMMON,space=1,delta=1,noexec
     6                           	psect	bssBANK0,global,class=BANK0,space=1,delta=1,noexec
     7                           	psect	cstackCOMMON,global,class=COMMON,space=1,delta=1,noexec
     8                           	psect	maintext,global,class=CODE,merge=1,split=1,delta=2
     9                           	psect	text1,local,class=CODE,merge=1,delta=2
    10                           	psect	text2,local,class=CODE,merge=1,delta=2
    11                           	psect	text3,local,class=CODE,merge=1,delta=2
    12                           	psect	text4,local,class=CODE,merge=1,delta=2
    13                           	psect	text5,local,class=CODE,merge=1,delta=2
    14                           	psect	text6,local,class=CODE,merge=1,delta=2
    15                           	psect	text7,local,class=CODE,merge=1,delta=2
    16                           	psect	text8,local,class=CODE,merge=1,delta=2
    17                           	psect	text9,local,class=CODE,merge=1,delta=2
    18                           	psect	text10,local,class=CODE,merge=1,delta=2
    19                           	psect	text11,local,class=CODE,merge=1,inline,delta=2
    20                           	psect	text12,local,class=CODE,merge=1,inline,delta=2
    21                           	psect	text13,local,class=CODE,merge=1,delta=2
    22                           	psect	text14,local,class=CODE,merge=1,inline,delta=2
    23                           	psect	intentry,global,class=CODE,delta=2
    24                           	psect	text16,local,class=CODE,merge=1,delta=2
    25                           	psect	config,global,abs,ovrld,class=CONFIG,space=4,delta=2,noexec
    26                           	dabs	1,0x7E,2
    27     0000                     
    28                           ; Generated 11/01/2024 GMT
    29                           ; 
    30                           ; Copyright © 2024, Microchip Technology Inc. and its subsidiaries ("Microchip")
    31                           ; All rights reserved.
    32                           ; 
    33                           ; This software is developed by Microchip Technology Inc. and its subsidiaries ("Microch
      +                          ip").
    34                           ; 
    35                           ; Redistribution and use in source and binary forms, with or without modification, are
    36                           ; permitted provided that the following conditions are met:
    37                           ; 
    38                           ;     1. Redistributions of source code must retain the above copyright notice, this lis
      +                          t of
    39                           ;        conditions and the following disclaimer.
    40                           ; 
    41                           ;     2. Redistributions in binary form must reproduce the above copyright notice, this 
      +                          list
    42                           ;        of conditions and the following disclaimer in the documentation and/or other
    43                           ;        materials provided with the distribution. Publication is not required when
    44                           ;        this file is used in an embedded application.
    45                           ; 
    46                           ;     3. Microchip's name may not be used to endorse or promote products derived from th
      +                          is
    47                           ;        software without specific prior written permission.
    48                           ; 
    49                           ; THIS SOFTWARE IS PROVIDED BY MICROCHIP "AS IS" AND ANY EXPRESS OR IMPLIED WARRANTIES,
    50                           ; INCLUDING, BUT NOT LIMITED TO, THE IMPLIED WARRANTIES OF MERCHANTABILITY AND FITNESS F
      +                          OR
    51                           ; PURPOSE ARE DISCLAIMED.  IN NO EVENT SHALL MICROCHIP BE LIABLE FOR ANY DIRECT, INDIREC
      +                          T,
    52                           ; INCIDENTAL, SPECIAL, EXEMPLARY, OR CONSEQUENTIAL DAMAGES (INCLUDING BUT NOT LIMITED TO
    53                           ; PROCUREMENT OF SUBSTITUTE GOODS OR SERVICES; LOSS OF USE, DATA OR PROFITS; OR BUSINESS
    54                           ; INTERRUPTION) HOWSOEVER CAUSED AND ON ANY THEORY OF LIABILITY, WHETHER IN CONTRACT, ST
      +                          RICT
    55                           ; LIABILITY, OR TORT (INCLUDING NEGLIGENCE OR OTHERWISE) ARISING IN ANY WAY OUT OF THE U
      +                          SE OF
    56                           ; THIS SOFTWARE, EVEN IF ADVISED OF THE POSSIBILITY OF SUCH DAMAGE.
    57                           ; 
    58                           ; 
    59                           ; Code-generator required, PIC16F13145 Definitions
    60                           ; 
    61                           ; SFR Addresses
    62     0000                     	;# 
    63     0001                     	;# 
    64     0002                     	;# 
    65     0003                     	;# 
    66     0004                     	;# 
    67     0005                     	;# 
    68     0006                     	;# 
    69     0007                     	;# 
    70     0008                     	;# 
    71     0009                     	;# 
    72     000A                     	;# 
    73     000B                     	;# 
    74     000C                     	;# 
    75     000D                     	;# 
    76     000E                     	;# 
    77     0012                     	;# 
    78     0013                     	;# 
    79     0014                     	;# 
    80     0018                     	;# 
    81     0019                     	;# 
    82     001A                     	;# 
    83     008C                     	;# 
    84     008D                     	;# 
    85     008E                     	;# 
    86     008F                     	;# 
    87     0090                     	;# 
    88     0091                     	;# 
    89     0092                     	;# 
    90     0093                     	;# 
    91     0096                     	;# 
    92     0097                     	;# 
    93     0098                     	;# 
    94     0099                     	;# 
    95     009A                     	;# 
    96     009B                     	;# 
    97     009C                     	;# 
    98     009D                     	;# 
    99     010C                     	;# 
   100     010D                     	;# 
   101     010E                     	;# 
   102     010F                     	;# 
   103     0110                     	;# 
   104     0111                     	;# 
   105     018C                     	;# 
   106     018D                     	;# 
   107     018E                     	;# 
   108     018E                     	;# 
   109     018F                     	;# 
   110     0190                     	;# 
   111     0191                     	;# 
   112     0192                     	;# 
   113     0193                     	;# 
   114     019C                     	;# 
   115     019C                     	;# 
   116     019D                     	;# 
   117     019D                     	;# 
   118     019E                     	;# 
   119     019F                     	;# 
   120     020C                     	;# 
   121     020D                     	;# 
   122     028C                     	;# 
   123     028D                     	;# 
   124     028E                     	;# 
   125     028F                     	;# 
   126     0290                     	;# 
   127     0291                     	;# 
   128     0292                     	;# 
   129     0293                     	;# 
   130     030C                     	;# 
   131     030C                     	;# 
   132     030D                     	;# 
   133     030E                     	;# 
   134     030F                     	;# 
   135     030F                     	;# 
   136     0310                     	;# 
   137     0310                     	;# 
   138     0311                     	;# 
   139     0311                     	;# 
   140     038C                     	;# 
   141     038C                     	;# 
   142     038D                     	;# 
   143     038D                     	;# 
   144     038E                     	;# 
   145     038F                     	;# 
   146     0390                     	;# 
   147     0390                     	;# 
   148     0391                     	;# 
   149     040C                     	;# 
   150     040C                     	;# 
   151     040D                     	;# 
   152     040E                     	;# 
   153     040F                     	;# 
   154     0410                     	;# 
   155     0410                     	;# 
   156     0411                     	;# 
   157     0412                     	;# 
   158     0413                     	;# 
   159     041F                     	;# 
   160     050C                     	;# 
   161     050D                     	;# 
   162     050E                     	;# 
   163     050F                     	;# 
   164     0510                     	;# 
   165     0511                     	;# 
   166     0512                     	;# 
   167     0513                     	;# 
   168     0514                     	;# 
   169     0515                     	;# 
   170     0516                     	;# 
   171     0517                     	;# 
   172     0518                     	;# 
   173     0519                     	;# 
   174     068C                     	;# 
   175     068D                     	;# 
   176     068E                     	;# 
   177     068F                     	;# 
   178     0690                     	;# 
   179     0691                     	;# 
   180     0692                     	;# 
   181     0693                     	;# 
   182     0694                     	;# 
   183     0695                     	;# 
   184     0696                     	;# 
   185     0697                     	;# 
   186     070C                     	;# 
   187     070D                     	;# 
   188     070E                     	;# 
   189     070E                     	;# 
   190     070F                     	;# 
   191     0710                     	;# 
   192     0711                     	;# 
   193     0712                     	;# 
   194     078C                     	;# 
   195     078D                     	;# 
   196     078E                     	;# 
   197     078F                     	;# 
   198     0790                     	;# 
   199     0791                     	;# 
   200     0792                     	;# 
   201     080C                     	;# 
   202     080D                     	;# 
   203     080E                     	;# 
   204     080F                     	;# 
   205     0810                     	;# 
   206     0811                     	;# 
   207     0812                     	;# 
   208     0813                     	;# 
   209     081F                     	;# 
   210     0820                     	;# 
   211     0820                     	;# 
   212     0821                     	;# 
   213     0822                     	;# 
   214     0823                     	;# 
   215     0823                     	;# 
   216     0824                     	;# 
   217     0825                     	;# 
   218     082F                     	;# 
   219     088C                     	;# 
   220     088D                     	;# 
   221     1C8C                     	;# 
   222     1C8C                     	;# 
   223     1C8D                     	;# 
   224     1C8E                     	;# 
   225     1C8E                     	;# 
   226     1C8F                     	;# 
   227     1C90                     	;# 
   228     1C91                     	;# 
   229     1C92                     	;# 
   230     1C93                     	;# 
   231     1C93                     	;# 
   232     1C94                     	;# 
   233     1C96                     	;# 
   234     1C96                     	;# 
   235     1C97                     	;# 
   236     1C99                     	;# 
   237     1C9A                     	;# 
   238     1C9D                     	;# 
   239     1C9D                     	;# 
   240     1C9E                     	;# 
   241     1C9F                     	;# 
   242     1CA0                     	;# 
   243     1CA1                     	;# 
   244     1CA1                     	;# 
   245     1CA1                     	;# 
   246     1CA1                     	;# 
   247     1CA1                     	;# 
   248     1CA1                     	;# 
   249     1CA1                     	;# 
   250     1CA2                     	;# 
   251     1CA2                     	;# 
   252     1CA2                     	;# 
   253     1CA2                     	;# 
   254     1CA3                     	;# 
   255     1CA3                     	;# 
   256     1CA3                     	;# 
   257     1CA3                     	;# 
   258     1CA4                     	;# 
   259     1CA4                     	;# 
   260     1CA4                     	;# 
   261     1CA4                     	;# 
   262     1CA5                     	;# 
   263     1CA6                     	;# 
   264     1CA7                     	;# 
   265     1D0C                     	;# 
   266     1D0C                     	;# 
   267     1D0D                     	;# 
   268     1D0E                     	;# 
   269     1D0E                     	;# 
   270     1D0F                     	;# 
   271     1D10                     	;# 
   272     1D10                     	;# 
   273     1D11                     	;# 
   274     1D12                     	;# 
   275     1D12                     	;# 
   276     1D13                     	;# 
   277     1D14                     	;# 
   278     1D14                     	;# 
   279     1D15                     	;# 
   280     1D16                     	;# 
   281     1D16                     	;# 
   282     1D17                     	;# 
   283     1D18                     	;# 
   284     1D19                     	;# 
   285     1D1A                     	;# 
   286     1D1B                     	;# 
   287     1D1B                     	;# 
   288     1D1C                     	;# 
   289     1D1D                     	;# 
   290     1D1D                     	;# 
   291     1D1E                     	;# 
   292     1D1F                     	;# 
   293     1D21                     	;# 
   294     1D21                     	;# 
   295     1D22                     	;# 
   296     1D23                     	;# 
   297     1D24                     	;# 
   298     1D24                     	;# 
   299     1D25                     	;# 
   300     1D26                     	;# 
   301     1D27                     	;# 
   302     1D28                     	;# 
   303     1D29                     	;# 
   304     1D2A                     	;# 
   305     1D2B                     	;# 
   306     1D2C                     	;# 
   307     1D2D                     	;# 
   308     1D2E                     	;# 
   309     1D2F                     	;# 
   310     1D30                     	;# 
   311     1D8C                     	;# 
   312     1D8D                     	;# 
   313     1D8E                     	;# 
   314     1D90                     	;# 
   315     1D91                     	;# 
   316     1D98                     	;# 
   317     1D99                     	;# 
   318     1D9A                     	;# 
   319     1D9B                     	;# 
   320     1D9C                     	;# 
   321     1D9D                     	;# 
   322     1D9E                     	;# 
   323     1D9F                     	;# 
   324     1DA0                     	;# 
   325     1DA1                     	;# 
   326     1DA2                     	;# 
   327     1DA3                     	;# 
   328     1E0C                     	;# 
   329     1E0D                     	;# 
   330     1E0E                     	;# 
   331     1E0F                     	;# 
   332     1E10                     	;# 
   333     1E19                     	;# 
   334     1E1E                     	;# 
   335     1E1F                     	;# 
   336     1E3D                     	;# 
   337     1E3E                     	;# 
   338     1E3F                     	;# 
   339     1E40                     	;# 
   340     1E41                     	;# 
   341     1E41                     	;# 
   342     1E42                     	;# 
   343     1E42                     	;# 
   344     1E47                     	;# 
   345     1E48                     	;# 
   346     1E49                     	;# 
   347     1E50                     	;# 
   348     1E57                     	;# 
   349     1E58                     	;# 
   350     1E59                     	;# 
   351     1E5A                     	;# 
   352     1E8C                     	;# 
   353     1E8D                     	;# 
   354     1E8E                     	;# 
   355     1E8F                     	;# 
   356     1E90                     	;# 
   357     1E91                     	;# 
   358     1E92                     	;# 
   359     1E93                     	;# 
   360     1E96                     	;# 
   361     1E97                     	;# 
   362     1E98                     	;# 
   363     1E99                     	;# 
   364     1E9A                     	;# 
   365     1E9B                     	;# 
   366     1E9C                     	;# 
   367     1E9D                     	;# 
   368     1EA0                     	;# 
   369     1EA1                     	;# 
   370     1EA2                     	;# 
   371     1EA3                     	;# 
   372     1EA4                     	;# 
   373     1EA5                     	;# 
   374     1EA6                     	;# 
   375     1EA7                     	;# 
   376     1EE5                     	;# 
   377     1EE7                     	;# 
   378     1F0C                     	;# 
   379     1F0D                     	;# 
   380     1F0E                     	;# 
   381     1FE4                     	;# 
   382     1FE5                     	;# 
   383     1FE6                     	;# 
   384     1FE7                     	;# 
   385     1FE8                     	;# 
   386     1FE8                     	;# 
   387     1FE9                     	;# 
   388     1FEA                     	;# 
   389     1FEA                     	;# 
   390     1FEB                     	;# 
   391     1FED                     	;# 
   392     1FEE                     	;# 
   393     1FEF                     	;# 
   394     0000                     	;# 
   395     0001                     	;# 
   396     0002                     	;# 
   397     0003                     	;# 
   398     0004                     	;# 
   399     0005                     	;# 
   400     0006                     	;# 
   401     0007                     	;# 
   402     0008                     	;# 
   403     0009                     	;# 
   404     000A                     	;# 
   405     000B                     	;# 
   406     000C                     	;# 
   407     000D                     	;# 
   408     000E                     	;# 
   409     0012                     	;# 
   410     0013                     	;# 
   411     0014                     	;# 
   412     0018                     	;# 
   413     0019                     	;# 
   414     001A                     	;# 
   415     008C                     	;# 
   416     008D                     	;# 
   417     008E                     	;# 
   418     008F                     	;# 
   419     0090                     	;# 
   420     0091                     	;# 
   421     0092                     	;# 
   422     0093                     	;# 
   423     0096                     	;# 
   424     0097                     	;# 
   425     0098                     	;# 
   426     0099                     	;# 
   427     009A                     	;# 
   428     009B                     	;# 
   429     009C                     	;# 
   430     009D                     	;# 
   431     010C                     	;# 
   432     010D                     	;# 
   433     010E                     	;# 
   434     010F                     	;# 
   435     0110                     	;# 
   436     0111                     	;# 
   437     018C                     	;# 
   438     018D                     	;# 
   439     018E                     	;# 
   440     018E                     	;# 
   441     018F                     	;# 
   442     0190                     	;# 
   443     0191                     	;# 
   444     0192                     	;# 
   445     0193                     	;# 
   446     019C                     	;# 
   447     019C                     	;# 
   448     019D                     	;# 
   449     019D                     	;# 
   450     019E                     	;# 
   451     019F                     	;# 
   452     020C                     	;# 
   453     020D                     	;# 
   454     028C                     	;# 
   455     028D                     	;# 
   456     028E                     	;# 
   457     028F                     	;# 
   458     0290                     	;# 
   459     0291                     	;# 
   460     0292                     	;# 
   461     0293                     	;# 
   462     030C                     	;# 
   463     030C                     	;# 
   464     030D                     	;# 
   465     030E                     	;# 
   466     030F                     	;# 
   467     030F                     	;# 
   468     0310                     	;# 
   469     0310                     	;# 
   470     0311                     	;# 
   471     0311                     	;# 
   472     038C                     	;# 
   473     038C                     	;# 
   474     038D                     	;# 
   475     038D                     	;# 
   476     038E                     	;# 
   477     038F                     	;# 
   478     0390                     	;# 
   479     0390                     	;# 
   480     0391                     	;# 
   481     040C                     	;# 
   482     040C                     	;# 
   483     040D                     	;# 
   484     040E                     	;# 
   485     040F                     	;# 
   486     0410                     	;# 
   487     0410                     	;# 
   488     0411                     	;# 
   489     0412                     	;# 
   490     0413                     	;# 
   491     041F                     	;# 
   492     050C                     	;# 
   493     050D                     	;# 
   494     050E                     	;# 
   495     050F                     	;# 
   496     0510                     	;# 
   497     0511                     	;# 
   498     0512                     	;# 
   499     0513                     	;# 
   500     0514                     	;# 
   501     0515                     	;# 
   502     0516                     	;# 
   503     0517                     	;# 
   504     0518                     	;# 
   505     0519                     	;# 
   506     068C                     	;# 
   507     068D                     	;# 
   508     068E                     	;# 
   509     068F                     	;# 
   510     0690                     	;# 
   511     0691                     	;# 
   512     0692                     	;# 
   513     0693                     	;# 
   514     0694                     	;# 
   515     0695                     	;# 
   516     0696                     	;# 
   517     0697                     	;# 
   518     070C                     	;# 
   519     070D                     	;# 
   520     070E                     	;# 
   521     070E                     	;# 
   522     070F                     	;# 
   523     0710                     	;# 
   524     0711                     	;# 
   525     0712                     	;# 
   526     078C                     	;# 
   527     078D                     	;# 
   528     078E                     	;# 
   529     078F                     	;# 
   530     0790                     	;# 
   531     0791                     	;# 
   532     0792                     	;# 
   533     080C                     	;# 
   534     080D                     	;# 
   535     080E                     	;# 
   536     080F                     	;# 
   537     0810                     	;# 
   538     0811                     	;# 
   539     0812                     	;# 
   540     0813                     	;# 
   541     081F                     	;# 
   542     0820                     	;# 
   543     0820                     	;# 
   544     0821                     	;# 
   545     0822                     	;# 
   546     0823                     	;# 
   547     0823                     	;# 
   548     0824                     	;# 
   549     0825                     	;# 
   550     082F                     	;# 
   551     088C                     	;# 
   552     088D                     	;# 
   553     1C8C                     	;# 
   554     1C8C                     	;# 
   555     1C8D                     	;# 
   556     1C8E                     	;# 
   557     1C8E                     	;# 
   558     1C8F                     	;# 
   559     1C90                     	;# 
   560     1C91                     	;# 
   561     1C92                     	;# 
   562     1C93                     	;# 
   563     1C93                     	;# 
   564     1C94                     	;# 
   565     1C96                     	;# 
   566     1C96                     	;# 
   567     1C97                     	;# 
   568     1C99                     	;# 
   569     1C9A                     	;# 
   570     1C9D                     	;# 
   571     1C9D                     	;# 
   572     1C9E                     	;# 
   573     1C9F                     	;# 
   574     1CA0                     	;# 
   575     1CA1                     	;# 
   576     1CA1                     	;# 
   577     1CA1                     	;# 
   578     1CA1                     	;# 
   579     1CA1                     	;# 
   580     1CA1                     	;# 
   581     1CA1                     	;# 
   582     1CA2                     	;# 
   583     1CA2                     	;# 
   584     1CA2                     	;# 
   585     1CA2                     	;# 
   586     1CA3                     	;# 
   587     1CA3                     	;# 
   588     1CA3                     	;# 
   589     1CA3                     	;# 
   590     1CA4                     	;# 
   591     1CA4                     	;# 
   592     1CA4                     	;# 
   593     1CA4                     	;# 
   594     1CA5                     	;# 
   595     1CA6                     	;# 
   596     1CA7                     	;# 
   597     1D0C                     	;# 
   598     1D0C                     	;# 
   599     1D0D                     	;# 
   600     1D0E                     	;# 
   601     1D0E                     	;# 
   602     1D0F                     	;# 
   603     1D10                     	;# 
   604     1D10                     	;# 
   605     1D11                     	;# 
   606     1D12                     	;# 
   607     1D12                     	;# 
   608     1D13                     	;# 
   609     1D14                     	;# 
   610     1D14                     	;# 
   611     1D15                     	;# 
   612     1D16                     	;# 
   613     1D16                     	;# 
   614     1D17                     	;# 
   615     1D18                     	;# 
   616     1D19                     	;# 
   617     1D1A                     	;# 
   618     1D1B                     	;# 
   619     1D1B                     	;# 
   620     1D1C                     	;# 
   621     1D1D                     	;# 
   622     1D1D                     	;# 
   623     1D1E                     	;# 
   624     1D1F                     	;# 
   625     1D21                     	;# 
   626     1D21                     	;# 
   627     1D22                     	;# 
   628     1D23                     	;# 
   629     1D24                     	;# 
   630     1D24                     	;# 
   631     1D25                     	;# 
   632     1D26                     	;# 
   633     1D27                     	;# 
   634     1D28                     	;# 
   635     1D29                     	;# 
   636     1D2A                     	;# 
   637     1D2B                     	;# 
   638     1D2C                     	;# 
   639     1D2D                     	;# 
   640     1D2E                     	;# 
   641     1D2F                     	;# 
   642     1D30                     	;# 
   643     1D8C                     	;# 
   644     1D8D                     	;# 
   645     1D8E                     	;# 
   646     1D90                     	;# 
   647     1D91                     	;# 
   648     1D98                     	;# 
   649     1D99                     	;# 
   650     1D9A                     	;# 
   651     1D9B                     	;# 
   652     1D9C                     	;# 
   653     1D9D                     	;# 
   654     1D9E                     	;# 
   655     1D9F                     	;# 
   656     1DA0                     	;# 
   657     1DA1                     	;# 
   658     1DA2                     	;# 
   659     1DA3                     	;# 
   660     1E0C                     	;# 
   661     1E0D                     	;# 
   662     1E0E                     	;# 
   663     1E0F                     	;# 
   664     1E10                     	;# 
   665     1E19                     	;# 
   666     1E1E                     	;# 
   667     1E1F                     	;# 
   668     1E3D                     	;# 
   669     1E3E                     	;# 
   670     1E3F                     	;# 
   671     1E40                     	;# 
   672     1E41                     	;# 
   673     1E41                     	;# 
   674     1E42                     	;# 
   675     1E42                     	;# 
   676     1E47                     	;# 
   677     1E48                     	;# 
   678     1E49                     	;# 
   679     1E50                     	;# 
   680     1E57                     	;# 
   681     1E58                     	;# 
   682     1E59                     	;# 
   683     1E5A                     	;# 
   684     1E8C                     	;# 
   685     1E8D                     	;# 
   686     1E8E                     	;# 
   687     1E8F                     	;# 
   688     1E90                     	;# 
   689     1E91                     	;# 
   690     1E92                     	;# 
   691     1E93                     	;# 
   692     1E96                     	;# 
   693     1E97                     	;# 
   694     1E98                     	;# 
   695     1E99                     	;# 
   696     1E9A                     	;# 
   697     1E9B                     	;# 
   698     1E9C                     	;# 
   699     1E9D                     	;# 
   700     1EA0                     	;# 
   701     1EA1                     	;# 
   702     1EA2                     	;# 
   703     1EA3                     	;# 
   704     1EA4                     	;# 
   705     1EA5                     	;# 
   706     1EA6                     	;# 
   707     1EA7                     	;# 
   708     1EE5                     	;# 
   709     1EE7                     	;# 
   710     1F0C                     	;# 
   711     1F0D                     	;# 
   712     1F0E                     	;# 
   713     1FE4                     	;# 
   714     1FE5                     	;# 
   715     1FE6                     	;# 
   716     1FE7                     	;# 
   717     1FE8                     	;# 
   718     1FE8                     	;# 
   719     1FE9                     	;# 
   720     1FEA                     	;# 
   721     1FEA                     	;# 
   722     1FEB                     	;# 
   723     1FED                     	;# 
   724     1FEE                     	;# 
   725     1FEF                     	;# 
   726     0000                     	;# 
   727     0001                     	;# 
   728     0002                     	;# 
   729     0003                     	;# 
   730     0004                     	;# 
   731     0005                     	;# 
   732     0006                     	;# 
   733     0007                     	;# 
   734     0008                     	;# 
   735     0009                     	;# 
   736     000A                     	;# 
   737     000B                     	;# 
   738     000C                     	;# 
   739     000D                     	;# 
   740     000E                     	;# 
   741     0012                     	;# 
   742     0013                     	;# 
   743     0014                     	;# 
   744     0018                     	;# 
   745     0019                     	;# 
   746     001A                     	;# 
   747     008C                     	;# 
   748     008D                     	;# 
   749     008E                     	;# 
   750     008F                     	;# 
   751     0090                     	;# 
   752     0091                     	;# 
   753     0092                     	;# 
   754     0093                     	;# 
   755     0096                     	;# 
   756     0097                     	;# 
   757     0098                     	;# 
   758     0099                     	;# 
   759     009A                     	;# 
   760     009B                     	;# 
   761     009C                     	;# 
   762     009D                     	;# 
   763     010C                     	;# 
   764     010D                     	;# 
   765     010E                     	;# 
   766     010F                     	;# 
   767     0110                     	;# 
   768     0111                     	;# 
   769     018C                     	;# 
   770     018D                     	;# 
   771     018E                     	;# 
   772     018E                     	;# 
   773     018F                     	;# 
   774     0190                     	;# 
   775     0191                     	;# 
   776     0192                     	;# 
   777     0193                     	;# 
   778     019C                     	;# 
   779     019C                     	;# 
   780     019D                     	;# 
   781     019D                     	;# 
   782     019E                     	;# 
   783     019F                     	;# 
   784     020C                     	;# 
   785     020D                     	;# 
   786     028C                     	;# 
   787     028D                     	;# 
   788     028E                     	;# 
   789     028F                     	;# 
   790     0290                     	;# 
   791     0291                     	;# 
   792     0292                     	;# 
   793     0293                     	;# 
   794     030C                     	;# 
   795     030C                     	;# 
   796     030D                     	;# 
   797     030E                     	;# 
   798     030F                     	;# 
   799     030F                     	;# 
   800     0310                     	;# 
   801     0310                     	;# 
   802     0311                     	;# 
   803     0311                     	;# 
   804     038C                     	;# 
   805     038C                     	;# 
   806     038D                     	;# 
   807     038D                     	;# 
   808     038E                     	;# 
   809     038F                     	;# 
   810     0390                     	;# 
   811     0390                     	;# 
   812     0391                     	;# 
   813     040C                     	;# 
   814     040C                     	;# 
   815     040D                     	;# 
   816     040E                     	;# 
   817     040F                     	;# 
   818     0410                     	;# 
   819     0410                     	;# 
   820     0411                     	;# 
   821     0412                     	;# 
   822     0413                     	;# 
   823     041F                     	;# 
   824     050C                     	;# 
   825     050D                     	;# 
   826     050E                     	;# 
   827     050F                     	;# 
   828     0510                     	;# 
   829     0511                     	;# 
   830     0512                     	;# 
   831     0513                     	;# 
   832     0514                     	;# 
   833     0515                     	;# 
   834     0516                     	;# 
   835     0517                     	;# 
   836     0518                     	;# 
   837     0519                     	;# 
   838     068C                     	;# 
   839     068D                     	;# 
   840     068E                     	;# 
   841     068F                     	;# 
   842     0690                     	;# 
   843     0691                     	;# 
   844     0692                     	;# 
   845     0693                     	;# 
   846     0694                     	;# 
   847     0695                     	;# 
   848     0696                     	;# 
   849     0697                     	;# 
   850     070C                     	;# 
   851     070D                     	;# 
   852     070E                     	;# 
   853     070E                     	;# 
   854     070F                     	;# 
   855     0710                     	;# 
   856     0711                     	;# 
   857     0712                     	;# 
   858     078C                     	;# 
   859     078D                     	;# 
   860     078E                     	;# 
   861     078F                     	;# 
   862     0790                     	;# 
   863     0791                     	;# 
   864     0792                     	;# 
   865     080C                     	;# 
   866     080D                     	;# 
   867     080E                     	;# 
   868     080F                     	;# 
   869     0810                     	;# 
   870     0811                     	;# 
   871     0812                     	;# 
   872     0813                     	;# 
   873     081F                     	;# 
   874     0820                     	;# 
   875     0820                     	;# 
   876     0821                     	;# 
   877     0822                     	;# 
   878     0823                     	;# 
   879     0823                     	;# 
   880     0824                     	;# 
   881     0825                     	;# 
   882     082F                     	;# 
   883     088C                     	;# 
   884     088D                     	;# 
   885     1C8C                     	;# 
   886     1C8C                     	;# 
   887     1C8D                     	;# 
   888     1C8E                     	;# 
   889     1C8E                     	;# 
   890     1C8F                     	;# 
   891     1C90                     	;# 
   892     1C91                     	;# 
   893     1C92                     	;# 
   894     1C93                     	;# 
   895     1C93                     	;# 
   896     1C94                     	;# 
   897     1C96                     	;# 
   898     1C96                     	;# 
   899     1C97                     	;# 
   900     1C99                     	;# 
   901     1C9A                     	;# 
   902     1C9D                     	;# 
   903     1C9D                     	;# 
   904     1C9E                     	;# 
   905     1C9F                     	;# 
   906     1CA0                     	;# 
   907     1CA1                     	;# 
   908     1CA1                     	;# 
   909     1CA1                     	;# 
   910     1CA1                     	;# 
   911     1CA1                     	;# 
   912     1CA1                     	;# 
   913     1CA1                     	;# 
   914     1CA2                     	;# 
   915     1CA2                     	;# 
   916     1CA2                     	;# 
   917     1CA2                     	;# 
   918     1CA3                     	;# 
   919     1CA3                     	;# 
   920     1CA3                     	;# 
   921     1CA3                     	;# 
   922     1CA4                     	;# 
   923     1CA4                     	;# 
   924     1CA4                     	;# 
   925     1CA4                     	;# 
   926     1CA5                     	;# 
   927     1CA6                     	;# 
   928     1CA7                     	;# 
   929     1D0C                     	;# 
   930     1D0C                     	;# 
   931     1D0D                     	;# 
   932     1D0E                     	;# 
   933     1D0E                     	;# 
   934     1D0F                     	;# 
   935     1D10                     	;# 
   936     1D10                     	;# 
   937     1D11                     	;# 
   938     1D12                     	;# 
   939     1D12                     	;# 
   940     1D13                     	;# 
   941     1D14                     	;# 
   942     1D14                     	;# 
   943     1D15                     	;# 
   944     1D16                     	;# 
   945     1D16                     	;# 
   946     1D17                     	;# 
   947     1D18                     	;# 
   948     1D19                     	;# 
   949     1D1A                     	;# 
   950     1D1B                     	;# 
   951     1D1B                     	;# 
   952     1D1C                     	;# 
   953     1D1D                     	;# 
   954     1D1D                     	;# 
   955     1D1E                     	;# 
   956     1D1F                     	;# 
   957     1D21                     	;# 
   958     1D21                     	;# 
   959     1D22                     	;# 
   960     1D23                     	;# 
   961     1D24                     	;# 
   962     1D24                     	;# 
   963     1D25                     	;# 
   964     1D26                     	;# 
   965     1D27                     	;# 
   966     1D28                     	;# 
   967     1D29                     	;# 
   968     1D2A                     	;# 
   969     1D2B                     	;# 
   970     1D2C                     	;# 
   971     1D2D                     	;# 
   972     1D2E                     	;# 
   973     1D2F                     	;# 
   974     1D30                     	;# 
   975     1D8C                     	;# 
   976     1D8D                     	;# 
   977     1D8E                     	;# 
   978     1D90                     	;# 
   979     1D91                     	;# 
   980     1D98                     	;# 
   981     1D99                     	;# 
   982     1D9A                     	;# 
   983     1D9B                     	;# 
   984     1D9C                     	;# 
   985     1D9D                     	;# 
   986     1D9E                     	;# 
   987     1D9F                     	;# 
   988     1DA0                     	;# 
   989     1DA1                     	;# 
   990     1DA2                     	;# 
   991     1DA3                     	;# 
   992     1E0C                     	;# 
   993     1E0D                     	;# 
   994     1E0E                     	;# 
   995     1E0F                     	;# 
   996     1E10                     	;# 
   997     1E19                     	;# 
   998     1E1E                     	;# 
   999     1E1F                     	;# 
  1000     1E3D                     	;# 
  1001     1E3E                     	;# 
  1002     1E3F                     	;# 
  1003     1E40                     	;# 
  1004     1E41                     	;# 
  1005     1E41                     	;# 
  1006     1E42                     	;# 
  1007     1E42                     	;# 
  1008     1E47                     	;# 
  1009     1E48                     	;# 
  1010     1E49                     	;# 
  1011     1E50                     	;# 
  1012     1E57                     	;# 
  1013     1E58                     	;# 
  1014     1E59                     	;# 
  1015     1E5A                     	;# 
  1016     1E8C                     	;# 
  1017     1E8D                     	;# 
  1018     1E8E                     	;# 
  1019     1E8F                     	;# 
  1020     1E90                     	;# 
  1021     1E91                     	;# 
  1022     1E92                     	;# 
  1023     1E93                     	;# 
  1024     1E96                     	;# 
  1025     1E97                     	;# 
  1026     1E98                     	;# 
  1027     1E99                     	;# 
  1028     1E9A                     	;# 
  1029     1E9B                     	;# 
  1030     1E9C                     	;# 
  1031     1E9D                     	;# 
  1032     1EA0                     	;# 
  1033     1EA1                     	;# 
  1034     1EA2                     	;# 
  1035     1EA3                     	;# 
  1036     1EA4                     	;# 
  1037     1EA5                     	;# 
  1038     1EA6                     	;# 
  1039     1EA7                     	;# 
  1040     1EE5                     	;# 
  1041     1EE7                     	;# 
  1042     1F0C                     	;# 
  1043     1F0D                     	;# 
  1044     1F0E                     	;# 
  1045     1FE4                     	;# 
  1046     1FE5                     	;# 
  1047     1FE6                     	;# 
  1048     1FE7                     	;# 
  1049     1FE8                     	;# 
  1050     1FE8                     	;# 
  1051     1FE9                     	;# 
  1052     1FEA                     	;# 
  1053     1FEA                     	;# 
  1054     1FEB                     	;# 
  1055     1FED                     	;# 
  1056     1FEE                     	;# 
  1057     1FEF                     	;# 
  1058     0000                     	;# 
  1059     0001                     	;# 
  1060     0002                     	;# 
  1061     0003                     	;# 
  1062     0004                     	;# 
  1063     0005                     	;# 
  1064     0006                     	;# 
  1065     0007                     	;# 
  1066     0008                     	;# 
  1067     0009                     	;# 
  1068     000A                     	;# 
  1069     000B                     	;# 
  1070     000C                     	;# 
  1071     000D                     	;# 
  1072     000E                     	;# 
  1073     0012                     	;# 
  1074     0013                     	;# 
  1075     0014                     	;# 
  1076     0018                     	;# 
  1077     0019                     	;# 
  1078     001A                     	;# 
  1079     008C                     	;# 
  1080     008D                     	;# 
  1081     008E                     	;# 
  1082     008F                     	;# 
  1083     0090                     	;# 
  1084     0091                     	;# 
  1085     0092                     	;# 
  1086     0093                     	;# 
  1087     0096                     	;# 
  1088     0097                     	;# 
  1089     0098                     	;# 
  1090     0099                     	;# 
  1091     009A                     	;# 
  1092     009B                     	;# 
  1093     009C                     	;# 
  1094     009D                     	;# 
  1095     010C                     	;# 
  1096     010D                     	;# 
  1097     010E                     	;# 
  1098     010F                     	;# 
  1099     0110                     	;# 
  1100     0111                     	;# 
  1101     018C                     	;# 
  1102     018D                     	;# 
  1103     018E                     	;# 
  1104     018E                     	;# 
  1105     018F                     	;# 
  1106     0190                     	;# 
  1107     0191                     	;# 
  1108     0192                     	;# 
  1109     0193                     	;# 
  1110     019C                     	;# 
  1111     019C                     	;# 
  1112     019D                     	;# 
  1113     019D                     	;# 
  1114     019E                     	;# 
  1115     019F                     	;# 
  1116     020C                     	;# 
  1117     020D                     	;# 
  1118     028C                     	;# 
  1119     028D                     	;# 
  1120     028E                     	;# 
  1121     028F                     	;# 
  1122     0290                     	;# 
  1123     0291                     	;# 
  1124     0292                     	;# 
  1125     0293                     	;# 
  1126     030C                     	;# 
  1127     030C                     	;# 
  1128     030D                     	;# 
  1129     030E                     	;# 
  1130     030F                     	;# 
  1131     030F                     	;# 
  1132     0310                     	;# 
  1133     0310                     	;# 
  1134     0311                     	;# 
  1135     0311                     	;# 
  1136     038C                     	;# 
  1137     038C                     	;# 
  1138     038D                     	;# 
  1139     038D                     	;# 
  1140     038E                     	;# 
  1141     038F                     	;# 
  1142     0390                     	;# 
  1143     0390                     	;# 
  1144     0391                     	;# 
  1145     040C                     	;# 
  1146     040C                     	;# 
  1147     040D                     	;# 
  1148     040E                     	;# 
  1149     040F                     	;# 
  1150     0410                     	;# 
  1151     0410                     	;# 
  1152     0411                     	;# 
  1153     0412                     	;# 
  1154     0413                     	;# 
  1155     041F                     	;# 
  1156     050C                     	;# 
  1157     050D                     	;# 
  1158     050E                     	;# 
  1159     050F                     	;# 
  1160     0510                     	;# 
  1161     0511                     	;# 
  1162     0512                     	;# 
  1163     0513                     	;# 
  1164     0514                     	;# 
  1165     0515                     	;# 
  1166     0516                     	;# 
  1167     0517                     	;# 
  1168     0518                     	;# 
  1169     0519                     	;# 
  1170     068C                     	;# 
  1171     068D                     	;# 
  1172     068E                     	;# 
  1173     068F                     	;# 
  1174     0690                     	;# 
  1175     0691                     	;# 
  1176     0692                     	;# 
  1177     0693                     	;# 
  1178     0694                     	;# 
  1179     0695                     	;# 
  1180     0696                     	;# 
  1181     0697                     	;# 
  1182     070C                     	;# 
  1183     070D                     	;# 
  1184     070E                     	;# 
  1185     070E                     	;# 
  1186     070F                     	;# 
  1187     0710                     	;# 
  1188     0711                     	;# 
  1189     0712                     	;# 
  1190     078C                     	;# 
  1191     078D                     	;# 
  1192     078E                     	;# 
  1193     078F                     	;# 
  1194     0790                     	;# 
  1195     0791                     	;# 
  1196     0792                     	;# 
  1197     080C                     	;# 
  1198     080D                     	;# 
  1199     080E                     	;# 
  1200     080F                     	;# 
  1201     0810                     	;# 
  1202     0811                     	;# 
  1203     0812                     	;# 
  1204     0813                     	;# 
  1205     081F                     	;# 
  1206     0820                     	;# 
  1207     0820                     	;# 
  1208     0821                     	;# 
  1209     0822                     	;# 
  1210     0823                     	;# 
  1211     0823                     	;# 
  1212     0824                     	;# 
  1213     0825                     	;# 
  1214     082F                     	;# 
  1215     088C                     	;# 
  1216     088D                     	;# 
  1217     1C8C                     	;# 
  1218     1C8C                     	;# 
  1219     1C8D                     	;# 
  1220     1C8E                     	;# 
  1221     1C8E                     	;# 
  1222     1C8F                     	;# 
  1223     1C90                     	;# 
  1224     1C91                     	;# 
  1225     1C92                     	;# 
  1226     1C93                     	;# 
  1227     1C93                     	;# 
  1228     1C94                     	;# 
  1229     1C96                     	;# 
  1230     1C96                     	;# 
  1231     1C97                     	;# 
  1232     1C99                     	;# 
  1233     1C9A                     	;# 
  1234     1C9D                     	;# 
  1235     1C9D                     	;# 
  1236     1C9E                     	;# 
  1237     1C9F                     	;# 
  1238     1CA0                     	;# 
  1239     1CA1                     	;# 
  1240     1CA1                     	;# 
  1241     1CA1                     	;# 
  1242     1CA1                     	;# 
  1243     1CA1                     	;# 
  1244     1CA1                     	;# 
  1245     1CA1                     	;# 
  1246     1CA2                     	;# 
  1247     1CA2                     	;# 
  1248     1CA2                     	;# 
  1249     1CA2                     	;# 
  1250     1CA3                     	;# 
  1251     1CA3                     	;# 
  1252     1CA3                     	;# 
  1253     1CA3                     	;# 
  1254     1CA4                     	;# 
  1255     1CA4                     	;# 
  1256     1CA4                     	;# 
  1257     1CA4                     	;# 
  1258     1CA5                     	;# 
  1259     1CA6                     	;# 
  1260     1CA7                     	;# 
  1261     1D0C                     	;# 
  1262     1D0C                     	;# 
  1263     1D0D                     	;# 
  1264     1D0E                     	;# 
  1265     1D0E                     	;# 
  1266     1D0F                     	;# 
  1267     1D10                     	;# 
  1268     1D10                     	;# 
  1269     1D11                     	;# 
  1270     1D12                     	;# 
  1271     1D12                     	;# 
  1272     1D13                     	;# 
  1273     1D14                     	;# 
  1274     1D14                     	;# 
  1275     1D15                     	;# 
  1276     1D16                     	;# 
  1277     1D16                     	;# 
  1278     1D17                     	;# 
  1279     1D18                     	;# 
  1280     1D19                     	;# 
  1281     1D1A                     	;# 
  1282     1D1B                     	;# 
  1283     1D1B                     	;# 
  1284     1D1C                     	;# 
  1285     1D1D                     	;# 
  1286     1D1D                     	;# 
  1287     1D1E                     	;# 
  1288     1D1F                     	;# 
  1289     1D21                     	;# 
  1290     1D21                     	;# 
  1291     1D22                     	;# 
  1292     1D23                     	;# 
  1293     1D24                     	;# 
  1294     1D24                     	;# 
  1295     1D25                     	;# 
  1296     1D26                     	;# 
  1297     1D27                     	;# 
  1298     1D28                     	;# 
  1299     1D29                     	;# 
  1300     1D2A                     	;# 
  1301     1D2B                     	;# 
  1302     1D2C                     	;# 
  1303     1D2D                     	;# 
  1304     1D2E                     	;# 
  1305     1D2F                     	;# 
  1306     1D30                     	;# 
  1307     1D8C                     	;# 
  1308     1D8D                     	;# 
  1309     1D8E                     	;# 
  1310     1D90                     	;# 
  1311     1D91                     	;# 
  1312     1D98                     	;# 
  1313     1D99                     	;# 
  1314     1D9A                     	;# 
  1315     1D9B                     	;# 
  1316     1D9C                     	;# 
  1317     1D9D                     	;# 
  1318     1D9E                     	;# 
  1319     1D9F                     	;# 
  1320     1DA0                     	;# 
  1321     1DA1                     	;# 
  1322     1DA2                     	;# 
  1323     1DA3                     	;# 
  1324     1E0C                     	;# 
  1325     1E0D                     	;# 
  1326     1E0E                     	;# 
  1327     1E0F                     	;# 
  1328     1E10                     	;# 
  1329     1E19                     	;# 
  1330     1E1E                     	;# 
  1331     1E1F                     	;# 
  1332     1E3D                     	;# 
  1333     1E3E                     	;# 
  1334     1E3F                     	;# 
  1335     1E40                     	;# 
  1336     1E41                     	;# 
  1337     1E41                     	;# 
  1338     1E42                     	;# 
  1339     1E42                     	;# 
  1340     1E47                     	;# 
  1341     1E48                     	;# 
  1342     1E49                     	;# 
  1343     1E50                     	;# 
  1344     1E57                     	;# 
  1345     1E58                     	;# 
  1346     1E59                     	;# 
  1347     1E5A                     	;# 
  1348     1E8C                     	;# 
  1349     1E8D                     	;# 
  1350     1E8E                     	;# 
  1351     1E8F                     	;# 
  1352     1E90                     	;# 
  1353     1E91                     	;# 
  1354     1E92                     	;# 
  1355     1E93                     	;# 
  1356     1E96                     	;# 
  1357     1E97                     	;# 
  1358     1E98                     	;# 
  1359     1E99                     	;# 
  1360     1E9A                     	;# 
  1361     1E9B                     	;# 
  1362     1E9C                     	;# 
  1363     1E9D                     	;# 
  1364     1EA0                     	;# 
  1365     1EA1                     	;# 
  1366     1EA2                     	;# 
  1367     1EA3                     	;# 
  1368     1EA4                     	;# 
  1369     1EA5                     	;# 
  1370     1EA6                     	;# 
  1371     1EA7                     	;# 
  1372     1EE5                     	;# 
  1373     1EE7                     	;# 
  1374     1F0C                     	;# 
  1375     1F0D                     	;# 
  1376     1F0E                     	;# 
  1377     1FE4                     	;# 
  1378     1FE5                     	;# 
  1379     1FE6                     	;# 
  1380     1FE7                     	;# 
  1381     1FE8                     	;# 
  1382     1FE8                     	;# 
  1383     1FE9                     	;# 
  1384     1FEA                     	;# 
  1385     1FEA                     	;# 
  1386     1FEB                     	;# 
  1387     1FED                     	;# 
  1388     1FEE                     	;# 
  1389     1FEF                     	;# 
  1390     0000                     	;# 
  1391     0001                     	;# 
  1392     0002                     	;# 
  1393     0003                     	;# 
  1394     0004                     	;# 
  1395     0005                     	;# 
  1396     0006                     	;# 
  1397     0007                     	;# 
  1398     0008                     	;# 
  1399     0009                     	;# 
  1400     000A                     	;# 
  1401     000B                     	;# 
  1402     000C                     	;# 
  1403     000D                     	;# 
  1404     000E                     	;# 
  1405     0012                     	;# 
  1406     0013                     	;# 
  1407     0014                     	;# 
  1408     0018                     	;# 
  1409     0019                     	;# 
  1410     001A                     	;# 
  1411     008C                     	;# 
  1412     008D                     	;# 
  1413     008E                     	;# 
  1414     008F                     	;# 
  1415     0090                     	;# 
  1416     0091                     	;# 
  1417     0092                     	;# 
  1418     0093                     	;# 
  1419     0096                     	;# 
  1420     0097                     	;# 
  1421     0098                     	;# 
  1422     0099                     	;# 
  1423     009A                     	;# 
  1424     009B                     	;# 
  1425     009C                     	;# 
  1426     009D                     	;# 
  1427     010C                     	;# 
  1428     010D                     	;# 
  1429     010E                     	;# 
  1430     010F                     	;# 
  1431     0110                     	;# 
  1432     0111                     	;# 
  1433     018C                     	;# 
  1434     018D                     	;# 
  1435     018E                     	;# 
  1436     018E                     	;# 
  1437     018F                     	;# 
  1438     0190                     	;# 
  1439     0191                     	;# 
  1440     0192                     	;# 
  1441     0193                     	;# 
  1442     019C                     	;# 
  1443     019C                     	;# 
  1444     019D                     	;# 
  1445     019D                     	;# 
  1446     019E                     	;# 
  1447     019F                     	;# 
  1448     020C                     	;# 
  1449     020D                     	;# 
  1450     028C                     	;# 
  1451     028D                     	;# 
  1452     028E                     	;# 
  1453     028F                     	;# 
  1454     0290                     	;# 
  1455     0291                     	;# 
  1456     0292                     	;# 
  1457     0293                     	;# 
  1458     030C                     	;# 
  1459     030C                     	;# 
  1460     030D                     	;# 
  1461     030E                     	;# 
  1462     030F                     	;# 
  1463     030F                     	;# 
  1464     0310                     	;# 
  1465     0310                     	;# 
  1466     0311                     	;# 
  1467     0311                     	;# 
  1468     038C                     	;# 
  1469     038C                     	;# 
  1470     038D                     	;# 
  1471     038D                     	;# 
  1472     038E                     	;# 
  1473     038F                     	;# 
  1474     0390                     	;# 
  1475     0390                     	;# 
  1476     0391                     	;# 
  1477     040C                     	;# 
  1478     040C                     	;# 
  1479     040D                     	;# 
  1480     040E                     	;# 
  1481     040F                     	;# 
  1482     0410                     	;# 
  1483     0410                     	;# 
  1484     0411                     	;# 
  1485     0412                     	;# 
  1486     0413                     	;# 
  1487     041F                     	;# 
  1488     050C                     	;# 
  1489     050D                     	;# 
  1490     050E                     	;# 
  1491     050F                     	;# 
  1492     0510                     	;# 
  1493     0511                     	;# 
  1494     0512                     	;# 
  1495     0513                     	;# 
  1496     0514                     	;# 
  1497     0515                     	;# 
  1498     0516                     	;# 
  1499     0517                     	;# 
  1500     0518                     	;# 
  1501     0519                     	;# 
  1502     068C                     	;# 
  1503     068D                     	;# 
  1504     068E                     	;# 
  1505     068F                     	;# 
  1506     0690                     	;# 
  1507     0691                     	;# 
  1508     0692                     	;# 
  1509     0693                     	;# 
  1510     0694                     	;# 
  1511     0695                     	;# 
  1512     0696                     	;# 
  1513     0697                     	;# 
  1514     070C                     	;# 
  1515     070D                     	;# 
  1516     070E                     	;# 
  1517     070E                     	;# 
  1518     070F                     	;# 
  1519     0710                     	;# 
  1520     0711                     	;# 
  1521     0712                     	;# 
  1522     078C                     	;# 
  1523     078D                     	;# 
  1524     078E                     	;# 
  1525     078F                     	;# 
  1526     0790                     	;# 
  1527     0791                     	;# 
  1528     0792                     	;# 
  1529     080C                     	;# 
  1530     080D                     	;# 
  1531     080E                     	;# 
  1532     080F                     	;# 
  1533     0810                     	;# 
  1534     0811                     	;# 
  1535     0812                     	;# 
  1536     0813                     	;# 
  1537     081F                     	;# 
  1538     0820                     	;# 
  1539     0820                     	;# 
  1540     0821                     	;# 
  1541     0822                     	;# 
  1542     0823                     	;# 
  1543     0823                     	;# 
  1544     0824                     	;# 
  1545     0825                     	;# 
  1546     082F                     	;# 
  1547     088C                     	;# 
  1548     088D                     	;# 
  1549     1C8C                     	;# 
  1550     1C8C                     	;# 
  1551     1C8D                     	;# 
  1552     1C8E                     	;# 
  1553     1C8E                     	;# 
  1554     1C8F                     	;# 
  1555     1C90                     	;# 
  1556     1C91                     	;# 
  1557     1C92                     	;# 
  1558     1C93                     	;# 
  1559     1C93                     	;# 
  1560     1C94                     	;# 
  1561     1C96                     	;# 
  1562     1C96                     	;# 
  1563     1C97                     	;# 
  1564     1C99                     	;# 
  1565     1C9A                     	;# 
  1566     1C9D                     	;# 
  1567     1C9D                     	;# 
  1568     1C9E                     	;# 
  1569     1C9F                     	;# 
  1570     1CA0                     	;# 
  1571     1CA1                     	;# 
  1572     1CA1                     	;# 
  1573     1CA1                     	;# 
  1574     1CA1                     	;# 
  1575     1CA1                     	;# 
  1576     1CA1                     	;# 
  1577     1CA1                     	;# 
  1578     1CA2                     	;# 
  1579     1CA2                     	;# 
  1580     1CA2                     	;# 
  1581     1CA2                     	;# 
  1582     1CA3                     	;# 
  1583     1CA3                     	;# 
  1584     1CA3                     	;# 
  1585     1CA3                     	;# 
  1586     1CA4                     	;# 
  1587     1CA4                     	;# 
  1588     1CA4                     	;# 
  1589     1CA4                     	;# 
  1590     1CA5                     	;# 
  1591     1CA6                     	;# 
  1592     1CA7                     	;# 
  1593     1D0C                     	;# 
  1594     1D0C                     	;# 
  1595     1D0D                     	;# 
  1596     1D0E                     	;# 
  1597     1D0E                     	;# 
  1598     1D0F                     	;# 
  1599     1D10                     	;# 
  1600     1D10                     	;# 
  1601     1D11                     	;# 
  1602     1D12                     	;# 
  1603     1D12                     	;# 
  1604     1D13                     	;# 
  1605     1D14                     	;# 
  1606     1D14                     	;# 
  1607     1D15                     	;# 
  1608     1D16                     	;# 
  1609     1D16                     	;# 
  1610     1D17                     	;# 
  1611     1D18                     	;# 
  1612     1D19                     	;# 
  1613     1D1A                     	;# 
  1614     1D1B                     	;# 
  1615     1D1B                     	;# 
  1616     1D1C                     	;# 
  1617     1D1D                     	;# 
  1618     1D1D                     	;# 
  1619     1D1E                     	;# 
  1620     1D1F                     	;# 
  1621     1D21                     	;# 
  1622     1D21                     	;# 
  1623     1D22                     	;# 
  1624     1D23                     	;# 
  1625     1D24                     	;# 
  1626     1D24                     	;# 
  1627     1D25                     	;# 
  1628     1D26                     	;# 
  1629     1D27                     	;# 
  1630     1D28                     	;# 
  1631     1D29                     	;# 
  1632     1D2A                     	;# 
  1633     1D2B                     	;# 
  1634     1D2C                     	;# 
  1635     1D2D                     	;# 
  1636     1D2E                     	;# 
  1637     1D2F                     	;# 
  1638     1D30                     	;# 
  1639     1D8C                     	;# 
  1640     1D8D                     	;# 
  1641     1D8E                     	;# 
  1642     1D90                     	;# 
  1643     1D91                     	;# 
  1644     1D98                     	;# 
  1645     1D99                     	;# 
  1646     1D9A                     	;# 
  1647     1D9B                     	;# 
  1648     1D9C                     	;# 
  1649     1D9D                     	;# 
  1650     1D9E                     	;# 
  1651     1D9F                     	;# 
  1652     1DA0                     	;# 
  1653     1DA1                     	;# 
  1654     1DA2                     	;# 
  1655     1DA3                     	;# 
  1656     1E0C                     	;# 
  1657     1E0D                     	;# 
  1658     1E0E                     	;# 
  1659     1E0F                     	;# 
  1660     1E10                     	;# 
  1661     1E19                     	;# 
  1662     1E1E                     	;# 
  1663     1E1F                     	;# 
  1664     1E3D                     	;# 
  1665     1E3E                     	;# 
  1666     1E3F                     	;# 
  1667     1E40                     	;# 
  1668     1E41                     	;# 
  1669     1E41                     	;# 
  1670     1E42                     	;# 
  1671     1E42                     	;# 
  1672     1E47                     	;# 
  1673     1E48                     	;# 
  1674     1E49                     	;# 
  1675     1E50                     	;# 
  1676     1E57                     	;# 
  1677     1E58                     	;# 
  1678     1E59                     	;# 
  1679     1E5A                     	;# 
  1680     1E8C                     	;# 
  1681     1E8D                     	;# 
  1682     1E8E                     	;# 
  1683     1E8F                     	;# 
  1684     1E90                     	;# 
  1685     1E91                     	;# 
  1686     1E92                     	;# 
  1687     1E93                     	;# 
  1688     1E96                     	;# 
  1689     1E97                     	;# 
  1690     1E98                     	;# 
  1691     1E99                     	;# 
  1692     1E9A                     	;# 
  1693     1E9B                     	;# 
  1694     1E9C                     	;# 
  1695     1E9D                     	;# 
  1696     1EA0                     	;# 
  1697     1EA1                     	;# 
  1698     1EA2                     	;# 
  1699     1EA3                     	;# 
  1700     1EA4                     	;# 
  1701     1EA5                     	;# 
  1702     1EA6                     	;# 
  1703     1EA7                     	;# 
  1704     1EE5                     	;# 
  1705     1EE7                     	;# 
  1706     1F0C                     	;# 
  1707     1F0D                     	;# 
  1708     1F0E                     	;# 
  1709     1FE4                     	;# 
  1710     1FE5                     	;# 
  1711     1FE6                     	;# 
  1712     1FE7                     	;# 
  1713     1FE8                     	;# 
  1714     1FE8                     	;# 
  1715     1FE9                     	;# 
  1716     1FEA                     	;# 
  1717     1FEA                     	;# 
  1718     1FEB                     	;# 
  1719     1FED                     	;# 
  1720     1FEE                     	;# 
  1721     1FEF                     	;# 
  1722     0000                     	;# 
  1723     0001                     	;# 
  1724     0002                     	;# 
  1725     0003                     	;# 
  1726     0004                     	;# 
  1727     0005                     	;# 
  1728     0006                     	;# 
  1729     0007                     	;# 
  1730     0008                     	;# 
  1731     0009                     	;# 
  1732     000A                     	;# 
  1733     000B                     	;# 
  1734     000C                     	;# 
  1735     000D                     	;# 
  1736     000E                     	;# 
  1737     0012                     	;# 
  1738     0013                     	;# 
  1739     0014                     	;# 
  1740     0018                     	;# 
  1741     0019                     	;# 
  1742     001A                     	;# 
  1743     008C                     	;# 
  1744     008D                     	;# 
  1745     008E                     	;# 
  1746     008F                     	;# 
  1747     0090                     	;# 
  1748     0091                     	;# 
  1749     0092                     	;# 
  1750     0093                     	;# 
  1751     0096                     	;# 
  1752     0097                     	;# 
  1753     0098                     	;# 
  1754     0099                     	;# 
  1755     009A                     	;# 
  1756     009B                     	;# 
  1757     009C                     	;# 
  1758     009D                     	;# 
  1759     010C                     	;# 
  1760     010D                     	;# 
  1761     010E                     	;# 
  1762     010F                     	;# 
  1763     0110                     	;# 
  1764     0111                     	;# 
  1765     018C                     	;# 
  1766     018D                     	;# 
  1767     018E                     	;# 
  1768     018E                     	;# 
  1769     018F                     	;# 
  1770     0190                     	;# 
  1771     0191                     	;# 
  1772     0192                     	;# 
  1773     0193                     	;# 
  1774     019C                     	;# 
  1775     019C                     	;# 
  1776     019D                     	;# 
  1777     019D                     	;# 
  1778     019E                     	;# 
  1779     019F                     	;# 
  1780     020C                     	;# 
  1781     020D                     	;# 
  1782     028C                     	;# 
  1783     028D                     	;# 
  1784     028E                     	;# 
  1785     028F                     	;# 
  1786     0290                     	;# 
  1787     0291                     	;# 
  1788     0292                     	;# 
  1789     0293                     	;# 
  1790     030C                     	;# 
  1791     030C                     	;# 
  1792     030D                     	;# 
  1793     030E                     	;# 
  1794     030F                     	;# 
  1795     030F                     	;# 
  1796     0310                     	;# 
  1797     0310                     	;# 
  1798     0311                     	;# 
  1799     0311                     	;# 
  1800     038C                     	;# 
  1801     038C                     	;# 
  1802     038D                     	;# 
  1803     038D                     	;# 
  1804     038E                     	;# 
  1805     038F                     	;# 
  1806     0390                     	;# 
  1807     0390                     	;# 
  1808     0391                     	;# 
  1809     040C                     	;# 
  1810     040C                     	;# 
  1811     040D                     	;# 
  1812     040E                     	;# 
  1813     040F                     	;# 
  1814     0410                     	;# 
  1815     0410                     	;# 
  1816     0411                     	;# 
  1817     0412                     	;# 
  1818     0413                     	;# 
  1819     041F                     	;# 
  1820     050C                     	;# 
  1821     050D                     	;# 
  1822     050E                     	;# 
  1823     050F                     	;# 
  1824     0510                     	;# 
  1825     0511                     	;# 
  1826     0512                     	;# 
  1827     0513                     	;# 
  1828     0514                     	;# 
  1829     0515                     	;# 
  1830     0516                     	;# 
  1831     0517                     	;# 
  1832     0518                     	;# 
  1833     0519                     	;# 
  1834     068C                     	;# 
  1835     068D                     	;# 
  1836     068E                     	;# 
  1837     068F                     	;# 
  1838     0690                     	;# 
  1839     0691                     	;# 
  1840     0692                     	;# 
  1841     0693                     	;# 
  1842     0694                     	;# 
  1843     0695                     	;# 
  1844     0696                     	;# 
  1845     0697                     	;# 
  1846     070C                     	;# 
  1847     070D                     	;# 
  1848     070E                     	;# 
  1849     070E                     	;# 
  1850     070F                     	;# 
  1851     0710                     	;# 
  1852     0711                     	;# 
  1853     0712                     	;# 
  1854     078C                     	;# 
  1855     078D                     	;# 
  1856     078E                     	;# 
  1857     078F                     	;# 
  1858     0790                     	;# 
  1859     0791                     	;# 
  1860     0792                     	;# 
  1861     080C                     	;# 
  1862     080D                     	;# 
  1863     080E                     	;# 
  1864     080F                     	;# 
  1865     0810                     	;# 
  1866     0811                     	;# 
  1867     0812                     	;# 
  1868     0813                     	;# 
  1869     081F                     	;# 
  1870     0820                     	;# 
  1871     0820                     	;# 
  1872     0821                     	;# 
  1873     0822                     	;# 
  1874     0823                     	;# 
  1875     0823                     	;# 
  1876     0824                     	;# 
  1877     0825                     	;# 
  1878     082F                     	;# 
  1879     088C                     	;# 
  1880     088D                     	;# 
  1881     1C8C                     	;# 
  1882     1C8C                     	;# 
  1883     1C8D                     	;# 
  1884     1C8E                     	;# 
  1885     1C8E                     	;# 
  1886     1C8F                     	;# 
  1887     1C90                     	;# 
  1888     1C91                     	;# 
  1889     1C92                     	;# 
  1890     1C93                     	;# 
  1891     1C93                     	;# 
  1892     1C94                     	;# 
  1893     1C96                     	;# 
  1894     1C96                     	;# 
  1895     1C97                     	;# 
  1896     1C99                     	;# 
  1897     1C9A                     	;# 
  1898     1C9D                     	;# 
  1899     1C9D                     	;# 
  1900     1C9E                     	;# 
  1901     1C9F                     	;# 
  1902     1CA0                     	;# 
  1903     1CA1                     	;# 
  1904     1CA1                     	;# 
  1905     1CA1                     	;# 
  1906     1CA1                     	;# 
  1907     1CA1                     	;# 
  1908     1CA1                     	;# 
  1909     1CA1                     	;# 
  1910     1CA2                     	;# 
  1911     1CA2                     	;# 
  1912     1CA2                     	;# 
  1913     1CA2                     	;# 
  1914     1CA3                     	;# 
  1915     1CA3                     	;# 
  1916     1CA3                     	;# 
  1917     1CA3                     	;# 
  1918     1CA4                     	;# 
  1919     1CA4                     	;# 
  1920     1CA4                     	;# 
  1921     1CA4                     	;# 
  1922     1CA5                     	;# 
  1923     1CA6                     	;# 
  1924     1CA7                     	;# 
  1925     1D0C                     	;# 
  1926     1D0C                     	;# 
  1927     1D0D                     	;# 
  1928     1D0E                     	;# 
  1929     1D0E                     	;# 
  1930     1D0F                     	;# 
  1931     1D10                     	;# 
  1932     1D10                     	;# 
  1933     1D11                     	;# 
  1934     1D12                     	;# 
  1935     1D12                     	;# 
  1936     1D13                     	;# 
  1937     1D14                     	;# 
  1938     1D14                     	;# 
  1939     1D15                     	;# 
  1940     1D16                     	;# 
  1941     1D16                     	;# 
  1942     1D17                     	;# 
  1943     1D18                     	;# 
  1944     1D19                     	;# 
  1945     1D1A                     	;# 
  1946     1D1B                     	;# 
  1947     1D1B                     	;# 
  1948     1D1C                     	;# 
  1949     1D1D                     	;# 
  1950     1D1D                     	;# 
  1951     1D1E                     	;# 
  1952     1D1F                     	;# 
  1953     1D21                     	;# 
  1954     1D21                     	;# 
  1955     1D22                     	;# 
  1956     1D23                     	;# 
  1957     1D24                     	;# 
  1958     1D24                     	;# 
  1959     1D25                     	;# 
  1960     1D26                     	;# 
  1961     1D27                     	;# 
  1962     1D28                     	;# 
  1963     1D29                     	;# 
  1964     1D2A                     	;# 
  1965     1D2B                     	;# 
  1966     1D2C                     	;# 
  1967     1D2D                     	;# 
  1968     1D2E                     	;# 
  1969     1D2F                     	;# 
  1970     1D30                     	;# 
  1971     1D8C                     	;# 
  1972     1D8D                     	;# 
  1973     1D8E                     	;# 
  1974     1D90                     	;# 
  1975     1D91                     	;# 
  1976     1D98                     	;# 
  1977     1D99                     	;# 
  1978     1D9A                     	;# 
  1979     1D9B                     	;# 
  1980     1D9C                     	;# 
  1981     1D9D                     	;# 
  1982     1D9E                     	;# 
  1983     1D9F                     	;# 
  1984     1DA0                     	;# 
  1985     1DA1                     	;# 
  1986     1DA2                     	;# 
  1987     1DA3                     	;# 
  1988     1E0C                     	;# 
  1989     1E0D                     	;# 
  1990     1E0E                     	;# 
  1991     1E0F                     	;# 
  1992     1E10                     	;# 
  1993     1E19                     	;# 
  1994     1E1E                     	;# 
  1995     1E1F                     	;# 
  1996     1E3D                     	;# 
  1997     1E3E                     	;# 
  1998     1E3F                     	;# 
  1999     1E40                     	;# 
  2000     1E41                     	;# 
  2001     1E41                     	;# 
  2002     1E42                     	;# 
  2003     1E42                     	;# 
  2004     1E47                     	;# 
  2005     1E48                     	;# 
  2006     1E49                     	;# 
  2007     1E50                     	;# 
  2008     1E57                     	;# 
  2009     1E58                     	;# 
  2010     1E59                     	;# 
  2011     1E5A                     	;# 
  2012     1E8C                     	;# 
  2013     1E8D                     	;# 
  2014     1E8E                     	;# 
  2015     1E8F                     	;# 
  2016     1E90                     	;# 
  2017     1E91                     	;# 
  2018     1E92                     	;# 
  2019     1E93                     	;# 
  2020     1E96                     	;# 
  2021     1E97                     	;# 
  2022     1E98                     	;# 
  2023     1E99                     	;# 
  2024     1E9A                     	;# 
  2025     1E9B                     	;# 
  2026     1E9C                     	;# 
  2027     1E9D                     	;# 
  2028     1EA0                     	;# 
  2029     1EA1                     	;# 
  2030     1EA2                     	;# 
  2031     1EA3                     	;# 
  2032     1EA4                     	;# 
  2033     1EA5                     	;# 
  2034     1EA6                     	;# 
  2035     1EA7                     	;# 
  2036     1EE5                     	;# 
  2037     1EE7                     	;# 
  2038     1F0C                     	;# 
  2039     1F0D                     	;# 
  2040     1F0E                     	;# 
  2041     1FE4                     	;# 
  2042     1FE5                     	;# 
  2043     1FE6                     	;# 
  2044     1FE7                     	;# 
  2045     1FE8                     	;# 
  2046     1FE8                     	;# 
  2047     1FE9                     	;# 
  2048     1FEA                     	;# 
  2049     1FEA                     	;# 
  2050     1FEB                     	;# 
  2051     1FED                     	;# 
  2052     1FEE                     	;# 
  2053     1FEF                     	;# 
  2054     0000                     	;# 
  2055     0001                     	;# 
  2056     0002                     	;# 
  2057     0003                     	;# 
  2058     0004                     	;# 
  2059     0005                     	;# 
  2060     0006                     	;# 
  2061     0007                     	;# 
  2062     0008                     	;# 
  2063     0009                     	;# 
  2064     000A                     	;# 
  2065     000B                     	;# 
  2066     000C                     	;# 
  2067     000D                     	;# 
  2068     000E                     	;# 
  2069     0012                     	;# 
  2070     0013                     	;# 
  2071     0014                     	;# 
  2072     0018                     	;# 
  2073     0019                     	;# 
  2074     001A                     	;# 
  2075     008C                     	;# 
  2076     008D                     	;# 
  2077     008E                     	;# 
  2078     008F                     	;# 
  2079     0090                     	;# 
  2080     0091                     	;# 
  2081     0092                     	;# 
  2082     0093                     	;# 
  2083     0096                     	;# 
  2084     0097                     	;# 
  2085     0098                     	;# 
  2086     0099                     	;# 
  2087     009A                     	;# 
  2088     009B                     	;# 
  2089     009C                     	;# 
  2090     009D                     	;# 
  2091     010C                     	;# 
  2092     010D                     	;# 
  2093     010E                     	;# 
  2094     010F                     	;# 
  2095     0110                     	;# 
  2096     0111                     	;# 
  2097     018C                     	;# 
  2098     018D                     	;# 
  2099     018E                     	;# 
  2100     018E                     	;# 
  2101     018F                     	;# 
  2102     0190                     	;# 
  2103     0191                     	;# 
  2104     0192                     	;# 
  2105     0193                     	;# 
  2106     019C                     	;# 
  2107     019C                     	;# 
  2108     019D                     	;# 
  2109     019D                     	;# 
  2110     019E                     	;# 
  2111     019F                     	;# 
  2112     020C                     	;# 
  2113     020D                     	;# 
  2114     028C                     	;# 
  2115     028D                     	;# 
  2116     028E                     	;# 
  2117     028F                     	;# 
  2118     0290                     	;# 
  2119     0291                     	;# 
  2120     0292                     	;# 
  2121     0293                     	;# 
  2122     030C                     	;# 
  2123     030C                     	;# 
  2124     030D                     	;# 
  2125     030E                     	;# 
  2126     030F                     	;# 
  2127     030F                     	;# 
  2128     0310                     	;# 
  2129     0310                     	;# 
  2130     0311                     	;# 
  2131     0311                     	;# 
  2132     038C                     	;# 
  2133     038C                     	;# 
  2134     038D                     	;# 
  2135     038D                     	;# 
  2136     038E                     	;# 
  2137     038F                     	;# 
  2138     0390                     	;# 
  2139     0390                     	;# 
  2140     0391                     	;# 
  2141     040C                     	;# 
  2142     040C                     	;# 
  2143     040D                     	;# 
  2144     040E                     	;# 
  2145     040F                     	;# 
  2146     0410                     	;# 
  2147     0410                     	;# 
  2148     0411                     	;# 
  2149     0412                     	;# 
  2150     0413                     	;# 
  2151     041F                     	;# 
  2152     050C                     	;# 
  2153     050D                     	;# 
  2154     050E                     	;# 
  2155     050F                     	;# 
  2156     0510                     	;# 
  2157     0511                     	;# 
  2158     0512                     	;# 
  2159     0513                     	;# 
  2160     0514                     	;# 
  2161     0515                     	;# 
  2162     0516                     	;# 
  2163     0517                     	;# 
  2164     0518                     	;# 
  2165     0519                     	;# 
  2166     068C                     	;# 
  2167     068D                     	;# 
  2168     068E                     	;# 
  2169     068F                     	;# 
  2170     0690                     	;# 
  2171     0691                     	;# 
  2172     0692                     	;# 
  2173     0693                     	;# 
  2174     0694                     	;# 
  2175     0695                     	;# 
  2176     0696                     	;# 
  2177     0697                     	;# 
  2178     070C                     	;# 
  2179     070D                     	;# 
  2180     070E                     	;# 
  2181     070E                     	;# 
  2182     070F                     	;# 
  2183     0710                     	;# 
  2184     0711                     	;# 
  2185     0712                     	;# 
  2186     078C                     	;# 
  2187     078D                     	;# 
  2188     078E                     	;# 
  2189     078F                     	;# 
  2190     0790                     	;# 
  2191     0791                     	;# 
  2192     0792                     	;# 
  2193     080C                     	;# 
  2194     080D                     	;# 
  2195     080E                     	;# 
  2196     080F                     	;# 
  2197     0810                     	;# 
  2198     0811                     	;# 
  2199     0812                     	;# 
  2200     0813                     	;# 
  2201     081F                     	;# 
  2202     0820                     	;# 
  2203     0820                     	;# 
  2204     0821                     	;# 
  2205     0822                     	;# 
  2206     0823                     	;# 
  2207     0823                     	;# 
  2208     0824                     	;# 
  2209     0825                     	;# 
  2210     082F                     	;# 
  2211     088C                     	;# 
  2212     088D                     	;# 
  2213     1C8C                     	;# 
  2214     1C8C                     	;# 
  2215     1C8D                     	;# 
  2216     1C8E                     	;# 
  2217     1C8E                     	;# 
  2218     1C8F                     	;# 
  2219     1C90                     	;# 
  2220     1C91                     	;# 
  2221     1C92                     	;# 
  2222     1C93                     	;# 
  2223     1C93                     	;# 
  2224     1C94                     	;# 
  2225     1C96                     	;# 
  2226     1C96                     	;# 
  2227     1C97                     	;# 
  2228     1C99                     	;# 
  2229     1C9A                     	;# 
  2230     1C9D                     	;# 
  2231     1C9D                     	;# 
  2232     1C9E                     	;# 
  2233     1C9F                     	;# 
  2234     1CA0                     	;# 
  2235     1CA1                     	;# 
  2236     1CA1                     	;# 
  2237     1CA1                     	;# 
  2238     1CA1                     	;# 
  2239     1CA1                     	;# 
  2240     1CA1                     	;# 
  2241     1CA1                     	;# 
  2242     1CA2                     	;# 
  2243     1CA2                     	;# 
  2244     1CA2                     	;# 
  2245     1CA2                     	;# 
  2246     1CA3                     	;# 
  2247     1CA3                     	;# 
  2248     1CA3                     	;# 
  2249     1CA3                     	;# 
  2250     1CA4                     	;# 
  2251     1CA4                     	;# 
  2252     1CA4                     	;# 
  2253     1CA4                     	;# 
  2254     1CA5                     	;# 
  2255     1CA6                     	;# 
  2256     1CA7                     	;# 
  2257     1D0C                     	;# 
  2258     1D0C                     	;# 
  2259     1D0D                     	;# 
  2260     1D0E                     	;# 
  2261     1D0E                     	;# 
  2262     1D0F                     	;# 
  2263     1D10                     	;# 
  2264     1D10                     	;# 
  2265     1D11                     	;# 
  2266     1D12                     	;# 
  2267     1D12                     	;# 
  2268     1D13                     	;# 
  2269     1D14                     	;# 
  2270     1D14                     	;# 
  2271     1D15                     	;# 
  2272     1D16                     	;# 
  2273     1D16                     	;# 
  2274     1D17                     	;# 
  2275     1D18                     	;# 
  2276     1D19                     	;# 
  2277     1D1A                     	;# 
  2278     1D1B                     	;# 
  2279     1D1B                     	;# 
  2280     1D1C                     	;# 
  2281     1D1D                     	;# 
  2282     1D1D                     	;# 
  2283     1D1E                     	;# 
  2284     1D1F                     	;# 
  2285     1D21                     	;# 
  2286     1D21                     	;# 
  2287     1D22                     	;# 
  2288     1D23                     	;# 
  2289     1D24                     	;# 
  2290     1D24                     	;# 
  2291     1D25                     	;# 
  2292     1D26                     	;# 
  2293     1D27                     	;# 
  2294     1D28                     	;# 
  2295     1D29                     	;# 
  2296     1D2A                     	;# 
  2297     1D2B                     	;# 
  2298     1D2C                     	;# 
  2299     1D2D                     	;# 
  2300     1D2E                     	;# 
  2301     1D2F                     	;# 
  2302     1D30                     	;# 
  2303     1D8C                     	;# 
  2304     1D8D                     	;# 
  2305     1D8E                     	;# 
  2306     1D90                     	;# 
  2307     1D91                     	;# 
  2308     1D98                     	;# 
  2309     1D99                     	;# 
  2310     1D9A                     	;# 
  2311     1D9B                     	;# 
  2312     1D9C                     	;# 
  2313     1D9D                     	;# 
  2314     1D9E                     	;# 
  2315     1D9F                     	;# 
  2316     1DA0                     	;# 
  2317     1DA1                     	;# 
  2318     1DA2                     	;# 
  2319     1DA3                     	;# 
  2320     1E0C                     	;# 
  2321     1E0D                     	;# 
  2322     1E0E                     	;# 
  2323     1E0F                     	;# 
  2324     1E10                     	;# 
  2325     1E19                     	;# 
  2326     1E1E                     	;# 
  2327     1E1F                     	;# 
  2328     1E3D                     	;# 
  2329     1E3E                     	;# 
  2330     1E3F                     	;# 
  2331     1E40                     	;# 
  2332     1E41                     	;# 
  2333     1E41                     	;# 
  2334     1E42                     	;# 
  2335     1E42                     	;# 
  2336     1E47                     	;# 
  2337     1E48                     	;# 
  2338     1E49                     	;# 
  2339     1E50                     	;# 
  2340     1E57                     	;# 
  2341     1E58                     	;# 
  2342     1E59                     	;# 
  2343     1E5A                     	;# 
  2344     1E8C                     	;# 
  2345     1E8D                     	;# 
  2346     1E8E                     	;# 
  2347     1E8F                     	;# 
  2348     1E90                     	;# 
  2349     1E91                     	;# 
  2350     1E92                     	;# 
  2351     1E93                     	;# 
  2352     1E96                     	;# 
  2353     1E97                     	;# 
  2354     1E98                     	;# 
  2355     1E99                     	;# 
  2356     1E9A                     	;# 
  2357     1E9B                     	;# 
  2358     1E9C                     	;# 
  2359     1E9D                     	;# 
  2360     1EA0                     	;# 
  2361     1EA1                     	;# 
  2362     1EA2                     	;# 
  2363     1EA3                     	;# 
  2364     1EA4                     	;# 
  2365     1EA5                     	;# 
  2366     1EA6                     	;# 
  2367     1EA7                     	;# 
  2368     1EE5                     	;# 
  2369     1EE7                     	;# 
  2370     1F0C                     	;# 
  2371     1F0D                     	;# 
  2372     1F0E                     	;# 
  2373     1FE4                     	;# 
  2374     1FE5                     	;# 
  2375     1FE6                     	;# 
  2376     1FE7                     	;# 
  2377     1FE8                     	;# 
  2378     1FE8                     	;# 
  2379     1FE9                     	;# 
  2380     1FEA                     	;# 
  2381     1FEA                     	;# 
  2382     1FEB                     	;# 
  2383     1FED                     	;# 
  2384     1FEE                     	;# 
  2385     1FEF                     	;# 
  2386     0000                     	;# 
  2387     0001                     	;# 
  2388     0002                     	;# 
  2389     0003                     	;# 
  2390     0004                     	;# 
  2391     0005                     	;# 
  2392     0006                     	;# 
  2393     0007                     	;# 
  2394     0008                     	;# 
  2395     0009                     	;# 
  2396     000A                     	;# 
  2397     000B                     	;# 
  2398     000C                     	;# 
  2399     000D                     	;# 
  2400     000E                     	;# 
  2401     0012                     	;# 
  2402     0013                     	;# 
  2403     0014                     	;# 
  2404     0018                     	;# 
  2405     0019                     	;# 
  2406     001A                     	;# 
  2407     008C                     	;# 
  2408     008D                     	;# 
  2409     008E                     	;# 
  2410     008F                     	;# 
  2411     0090                     	;# 
  2412     0091                     	;# 
  2413     0092                     	;# 
  2414     0093                     	;# 
  2415     0096                     	;# 
  2416     0097                     	;# 
  2417     0098                     	;# 
  2418     0099                     	;# 
  2419     009A                     	;# 
  2420     009B                     	;# 
  2421     009C                     	;# 
  2422     009D                     	;# 
  2423     010C                     	;# 
  2424     010D                     	;# 
  2425     010E                     	;# 
  2426     010F                     	;# 
  2427     0110                     	;# 
  2428     0111                     	;# 
  2429     018C                     	;# 
  2430     018D                     	;# 
  2431     018E                     	;# 
  2432     018E                     	;# 
  2433     018F                     	;# 
  2434     0190                     	;# 
  2435     0191                     	;# 
  2436     0192                     	;# 
  2437     0193                     	;# 
  2438     019C                     	;# 
  2439     019C                     	;# 
  2440     019D                     	;# 
  2441     019D                     	;# 
  2442     019E                     	;# 
  2443     019F                     	;# 
  2444     020C                     	;# 
  2445     020D                     	;# 
  2446     028C                     	;# 
  2447     028D                     	;# 
  2448     028E                     	;# 
  2449     028F                     	;# 
  2450     0290                     	;# 
  2451     0291                     	;# 
  2452     0292                     	;# 
  2453     0293                     	;# 
  2454     030C                     	;# 
  2455     030C                     	;# 
  2456     030D                     	;# 
  2457     030E                     	;# 
  2458     030F                     	;# 
  2459     030F                     	;# 
  2460     0310                     	;# 
  2461     0310                     	;# 
  2462     0311                     	;# 
  2463     0311                     	;# 
  2464     038C                     	;# 
  2465     038C                     	;# 
  2466     038D                     	;# 
  2467     038D                     	;# 
  2468     038E                     	;# 
  2469     038F                     	;# 
  2470     0390                     	;# 
  2471     0390                     	;# 
  2472     0391                     	;# 
  2473     040C                     	;# 
  2474     040C                     	;# 
  2475     040D                     	;# 
  2476     040E                     	;# 
  2477     040F                     	;# 
  2478     0410                     	;# 
  2479     0410                     	;# 
  2480     0411                     	;# 
  2481     0412                     	;# 
  2482     0413                     	;# 
  2483     041F                     	;# 
  2484     050C                     	;# 
  2485     050D                     	;# 
  2486     050E                     	;# 
  2487     050F                     	;# 
  2488     0510                     	;# 
  2489     0511                     	;# 
  2490     0512                     	;# 
  2491     0513                     	;# 
  2492     0514                     	;# 
  2493     0515                     	;# 
  2494     0516                     	;# 
  2495     0517                     	;# 
  2496     0518                     	;# 
  2497     0519                     	;# 
  2498     068C                     	;# 
  2499     068D                     	;# 
  2500     068E                     	;# 
  2501     068F                     	;# 
  2502     0690                     	;# 
  2503     0691                     	;# 
  2504     0692                     	;# 
  2505     0693                     	;# 
  2506     0694                     	;# 
  2507     0695                     	;# 
  2508     0696                     	;# 
  2509     0697                     	;# 
  2510     070C                     	;# 
  2511     070D                     	;# 
  2512     070E                     	;# 
  2513     070E                     	;# 
  2514     070F                     	;# 
  2515     0710                     	;# 
  2516     0711                     	;# 
  2517     0712                     	;# 
  2518     078C                     	;# 
  2519     078D                     	;# 
  2520     078E                     	;# 
  2521     078F                     	;# 
  2522     0790                     	;# 
  2523     0791                     	;# 
  2524     0792                     	;# 
  2525     080C                     	;# 
  2526     080D                     	;# 
  2527     080E                     	;# 
  2528     080F                     	;# 
  2529     0810                     	;# 
  2530     0811                     	;# 
  2531     0812                     	;# 
  2532     0813                     	;# 
  2533     081F                     	;# 
  2534     0820                     	;# 
  2535     0820                     	;# 
  2536     0821                     	;# 
  2537     0822                     	;# 
  2538     0823                     	;# 
  2539     0823                     	;# 
  2540     0824                     	;# 
  2541     0825                     	;# 
  2542     082F                     	;# 
  2543     088C                     	;# 
  2544     088D                     	;# 
  2545     1C8C                     	;# 
  2546     1C8C                     	;# 
  2547     1C8D                     	;# 
  2548     1C8E                     	;# 
  2549     1C8E                     	;# 
  2550     1C8F                     	;# 
  2551     1C90                     	;# 
  2552     1C91                     	;# 
  2553     1C92                     	;# 
  2554     1C93                     	;# 
  2555     1C93                     	;# 
  2556     1C94                     	;# 
  2557     1C96                     	;# 
  2558     1C96                     	;# 
  2559     1C97                     	;# 
  2560     1C99                     	;# 
  2561     1C9A                     	;# 
  2562     1C9D                     	;# 
  2563     1C9D                     	;# 
  2564     1C9E                     	;# 
  2565     1C9F                     	;# 
  2566     1CA0                     	;# 
  2567     1CA1                     	;# 
  2568     1CA1                     	;# 
  2569     1CA1                     	;# 
  2570     1CA1                     	;# 
  2571     1CA1                     	;# 
  2572     1CA1                     	;# 
  2573     1CA1                     	;# 
  2574     1CA2                     	;# 
  2575     1CA2                     	;# 
  2576     1CA2                     	;# 
  2577     1CA2                     	;# 
  2578     1CA3                     	;# 
  2579     1CA3                     	;# 
  2580     1CA3                     	;# 
  2581     1CA3                     	;# 
  2582     1CA4                     	;# 
  2583     1CA4                     	;# 
  2584     1CA4                     	;# 
  2585     1CA4                     	;# 
  2586     1CA5                     	;# 
  2587     1CA6                     	;# 
  2588     1CA7                     	;# 
  2589     1D0C                     	;# 
  2590     1D0C                     	;# 
  2591     1D0D                     	;# 
  2592     1D0E                     	;# 
  2593     1D0E                     	;# 
  2594     1D0F                     	;# 
  2595     1D10                     	;# 
  2596     1D10                     	;# 
  2597     1D11                     	;# 
  2598     1D12                     	;# 
  2599     1D12                     	;# 
  2600     1D13                     	;# 
  2601     1D14                     	;# 
  2602     1D14                     	;# 
  2603     1D15                     	;# 
  2604     1D16                     	;# 
  2605     1D16                     	;# 
  2606     1D17                     	;# 
  2607     1D18                     	;# 
  2608     1D19                     	;# 
  2609     1D1A                     	;# 
  2610     1D1B                     	;# 
  2611     1D1B                     	;# 
  2612     1D1C                     	;# 
  2613     1D1D                     	;# 
  2614     1D1D                     	;# 
  2615     1D1E                     	;# 
  2616     1D1F                     	;# 
  2617     1D21                     	;# 
  2618     1D21                     	;# 
  2619     1D22                     	;# 
  2620     1D23                     	;# 
  2621     1D24                     	;# 
  2622     1D24                     	;# 
  2623     1D25                     	;# 
  2624     1D26                     	;# 
  2625     1D27                     	;# 
  2626     1D28                     	;# 
  2627     1D29                     	;# 
  2628     1D2A                     	;# 
  2629     1D2B                     	;# 
  2630     1D2C                     	;# 
  2631     1D2D                     	;# 
  2632     1D2E                     	;# 
  2633     1D2F                     	;# 
  2634     1D30                     	;# 
  2635     1D8C                     	;# 
  2636     1D8D                     	;# 
  2637     1D8E                     	;# 
  2638     1D90                     	;# 
  2639     1D91                     	;# 
  2640     1D98                     	;# 
  2641     1D99                     	;# 
  2642     1D9A                     	;# 
  2643     1D9B                     	;# 
  2644     1D9C                     	;# 
  2645     1D9D                     	;# 
  2646     1D9E                     	;# 
  2647     1D9F                     	;# 
  2648     1DA0                     	;# 
  2649     1DA1                     	;# 
  2650     1DA2                     	;# 
  2651     1DA3                     	;# 
  2652     1E0C                     	;# 
  2653     1E0D                     	;# 
  2654     1E0E                     	;# 
  2655     1E0F                     	;# 
  2656     1E10                     	;# 
  2657     1E19                     	;# 
  2658     1E1E                     	;# 
  2659     1E1F                     	;# 
  2660     1E3D                     	;# 
  2661     1E3E                     	;# 
  2662     1E3F                     	;# 
  2663     1E40                     	;# 
  2664     1E41                     	;# 
  2665     1E41                     	;# 
  2666     1E42                     	;# 
  2667     1E42                     	;# 
  2668     1E47                     	;# 
  2669     1E48                     	;# 
  2670     1E49                     	;# 
  2671     1E50                     	;# 
  2672     1E57                     	;# 
  2673     1E58                     	;# 
  2674     1E59                     	;# 
  2675     1E5A                     	;# 
  2676     1E8C                     	;# 
  2677     1E8D                     	;# 
  2678     1E8E                     	;# 
  2679     1E8F                     	;# 
  2680     1E90                     	;# 
  2681     1E91                     	;# 
  2682     1E92                     	;# 
  2683     1E93                     	;# 
  2684     1E96                     	;# 
  2685     1E97                     	;# 
  2686     1E98                     	;# 
  2687     1E99                     	;# 
  2688     1E9A                     	;# 
  2689     1E9B                     	;# 
  2690     1E9C                     	;# 
  2691     1E9D                     	;# 
  2692     1EA0                     	;# 
  2693     1EA1                     	;# 
  2694     1EA2                     	;# 
  2695     1EA3                     	;# 
  2696     1EA4                     	;# 
  2697     1EA5                     	;# 
  2698     1EA6                     	;# 
  2699     1EA7                     	;# 
  2700     1EE5                     	;# 
  2701     1EE7                     	;# 
  2702     1F0C                     	;# 
  2703     1F0D                     	;# 
  2704     1F0E                     	;# 
  2705     1FE4                     	;# 
  2706     1FE5                     	;# 
  2707     1FE6                     	;# 
  2708     1FE7                     	;# 
  2709     1FE8                     	;# 
  2710     1FE8                     	;# 
  2711     1FE9                     	;# 
  2712     1FEA                     	;# 
  2713     1FEA                     	;# 
  2714     1FEB                     	;# 
  2715     1FED                     	;# 
  2716     1FEE                     	;# 
  2717     1FEF                     	;# 
  2718                           
  2719 ;; Function _INT_DefaultInterruptHandler is unused but had its address taken
  2720     000B                     _INTCONbits	set	11
  2721     0014                     _TRISC	set	20
  2722     0013                     _TRISB	set	19
  2723     0012                     _TRISA	set	18
  2724     001A                     _LATC	set	26
  2725     0019                     _LATB	set	25
  2726     0018                     _LATA	set	24
  2727     0096                     _PIE0bits	set	150
  2728     008C                     _PIR0bits	set	140
  2729     009D                     _PIE7bits	set	157
  2730     0093                     _PIR7bits	set	147
  2731     0097                     _PIE1bits	set	151
  2732     008D                     _PIR1bits	set	141
  2733     0292                     _OSCTUNE	set	658
  2734     0293                     _OSCFRQ	set	659
  2735     0291                     _OSCEN	set	657
  2736     028F                     _OSCCON3	set	655
  2737     028D                     _OSCCON1	set	653
  2738     050E                     _CLBSWINH	set	1294
  2739     050D                     _CLBSWINU	set	1293
  2740     050F                     _CLBSWINM	set	1295
  2741     0510                     _CLBSWINL	set	1296
  2742     050C                     _CLBCON	set	1292
  2743     0516                     _CLBPPSCON4	set	1302
  2744     0517                     _CLBPPSCON3	set	1303
  2745     0518                     _CLBPPSCON2	set	1304
  2746     0519                     _CLBPPSCON1	set	1305
  2747     0515                     _CLBCLK	set	1301
  2748     050C                     _CLBCONbits	set	1292
  2749     1C91                     _NVMCON2	set	7313
  2750     1C8E                     _NVMDATL	set	7310
  2751     1C8F                     _NVMDATH	set	7311
  2752     1C8C                     _NVMADRL	set	7308
  2753     1C8D                     _NVMADRH	set	7309
  2754     1C90                     _NVMCON1bits	set	7312
  2755     1C99                     _SCANDPSbits	set	7321
  2756     1C92                     _SCANCON0bits	set	7314
  2757     1CA6                     _CRCCON1bits	set	7334
  2758     1C92                     _SCANCON0	set	7314
  2759     1C9A                     _SCANTRIG	set	7322
  2760     1C93                     _SCANLADRL	set	7315
  2761     1C94                     _SCANLADRH	set	7316
  2762     1C96                     _SCANHADRL	set	7318
  2763     1C97                     _SCANHADRH	set	7319
  2764     1C9D                     _CRCDATAL	set	7325
  2765     1C9E                     _CRCDATAH	set	7326
  2766     1C9F                     _CRCDATAU	set	7327
  2767     1CA0                     _CRCDATAT	set	7328
  2768     1CA1                     _CRCOUTL	set	7329
  2769     1CA2                     _CRCOUTH	set	7330
  2770     1CA3                     _CRCOUTU	set	7331
  2771     1CA4                     _CRCOUTT	set	7332
  2772     1CA1                     _CRCXORL	set	7329
  2773     1CA2                     _CRCXORH	set	7330
  2774     1CA3                     _CRCXORU	set	7331
  2775     1CA4                     _CRCXORT	set	7332
  2776     1CA5                     _CRCCON0bits	set	7333
  2777     1CA7                     _CRCCON2	set	7335
  2778     1CA6                     _CRCCON1	set	7334
  2779     1CA5                     _CRCCON0	set	7333
  2780     1D9F                     _RC3PPS	set	7583
  2781     1D9E                     _RC2PPS	set	7582
  2782     1D9D                     _RC1PPS	set	7581
  2783     1D9C                     _RC0PPS	set	7580
  2784     1EA7                     _IOCCF	set	7847
  2785     1EA6                     _IOCCN	set	7846
  2786     1EA5                     _IOCCP	set	7845
  2787     1E9D                     _IOCBF	set	7837
  2788     1E9C                     _IOCBN	set	7836
  2789     1E9B                     _IOCBP	set	7835
  2790     1E93                     _IOCAF	set	7827
  2791     1E92                     _IOCAN	set	7826
  2792     1E91                     _IOCAP	set	7825
  2793     1EA4                     _INLVLC	set	7844
  2794     1E9A                     _INLVLB	set	7834
  2795     1E90                     _INLVLA	set	7824
  2796     1EA3                     _SLRCONC	set	7843
  2797     1E99                     _SLRCONB	set	7833
  2798     1E8F                     _SLRCONA	set	7823
  2799     1EA2                     _ODCONC	set	7842
  2800     1E98                     _ODCONB	set	7832
  2801     1E8E                     _ODCONA	set	7822
  2802     1EA1                     _WPUC	set	7841
  2803     1E97                     _WPUB	set	7831
  2804     1E8D                     _WPUA	set	7821
  2805     1EA0                     _ANSELC	set	7840
  2806     1E96                     _ANSELB	set	7830
  2807     1E8C                     _ANSELA	set	7820
  2808                           
  2809                           	psect	cinit
  2810     0016                     start_initialization:	
  2811                           ; #config settings
  2812                           
  2813     0016                     __initialization:
  2814                           
  2815                           ; Clear objects allocated to COMMON
  2816     0016  01FB               	clrf	__pbssCOMMON& (0+127)
  2817     0017  01FC               	clrf	(__pbssCOMMON+1)& (0+127)
  2818                           
  2819                           ; Clear objects allocated to BANK0
  2820     0018  0140               	movlb	0	; select bank0
  2821     0019  01A0               	clrf	__pbssBANK0& (0+127)
  2822     001A  01A1               	clrf	(__pbssBANK0+1)& (0+127)
  2823     001B                     end_of_initialization:	
  2824                           ;End of C runtime variable initialization code
  2825                           
  2826     001B                     __end_of__initialization:
  2827     001B  107E               	bcf	int$flags,0	;clear compiler interrupt flag (level 1)
  2828     001C  0140               	movlb	0
  2829     001D  3181  2923         	ljmp	_main	;jump to C main() function
  2830                           
  2831                           	psect	bssCOMMON
  2832     007B                     __pbssCOMMON:
  2833     007B                     _unlockKeyHigh:
  2834     007B                     	ds	1
  2835     007C                     _unlockKeyLow:
  2836     007C                     	ds	1
  2837                           
  2838                           	psect	bssBANK0
  2839     0020                     __pbssBANK0:
  2840     0020                     _INT_InterruptHandler:
  2841     0020                     	ds	2
  2842                           
  2843                           	psect	cstackCOMMON
  2844     0070                     __pcstackCOMMON:
  2845     0070                     ?_INT_SetInterruptHandler:
  2846     0070                     ?_NVM_StatusClear:	
  2847                           ; 1 bytes @ 0x0
  2848                           
  2849     0070                     ??_NVM_StatusClear:	
  2850                           ; 1 bytes @ 0x0
  2851                           
  2852     0070                     ?_SYSTEM_Initialize:	
  2853                           ; 1 bytes @ 0x0
  2854                           
  2855     0070                     ?_CRC_Initialize:	
  2856                           ; 1 bytes @ 0x0
  2857                           
  2858     0070                     ??_CRC_Initialize:	
  2859                           ; 1 bytes @ 0x0
  2860                           
  2861     0070                     ?_CRC_StartNvmScanner:	
  2862                           ; 1 bytes @ 0x0
  2863                           
  2864     0070                     ??_CRC_StartNvmScanner:	
  2865                           ; 1 bytes @ 0x0
  2866                           
  2867     0070                     ?_CRC_StopNvmScanner:	
  2868                           ; 1 bytes @ 0x0
  2869                           
  2870     0070                     ??_CRC_StopNvmScanner:	
  2871                           ; 1 bytes @ 0x0
  2872                           
  2873     0070                     ?_CRC_SetScannerAddressLimit:	
  2874                           ; 1 bytes @ 0x0
  2875                           
  2876     0070                     ?_CRC_IsScannerBusy:	
  2877                           ; 1 bytes @ 0x0
  2878                           
  2879     0070                     ??_CRC_IsScannerBusy:	
  2880                           ; 1 bytes @ 0x0
  2881                           
  2882     0070                     ?_PIN_MANAGER_Initialize:	
  2883                           ; 1 bytes @ 0x0
  2884                           
  2885     0070                     ??_PIN_MANAGER_Initialize:	
  2886                           ; 1 bytes @ 0x0
  2887                           
  2888     0070                     ?_PIN_MANAGER_IOC:	
  2889                           ; 1 bytes @ 0x0
  2890                           
  2891     0070                     ??_PIN_MANAGER_IOC:	
  2892                           ; 1 bytes @ 0x0
  2893                           
  2894     0070                     ?_CLB1_Initialize:	
  2895                           ; 1 bytes @ 0x0
  2896                           
  2897     0070                     ?_INTERRUPT_Initialize:	
  2898                           ; 1 bytes @ 0x0
  2899                           
  2900     0070                     ?_INTERRUPT_InterruptManager:	
  2901                           ; 1 bytes @ 0x0
  2902                           
  2903     0070                     ??_INTERRUPT_InterruptManager:	
  2904                           ; 1 bytes @ 0x0
  2905                           
  2906     0070                     ?_NVM_Initialize:	
  2907                           ; 1 bytes @ 0x0
  2908                           
  2909     0070                     ??_NVM_Initialize:	
  2910                           ; 1 bytes @ 0x0
  2911                           
  2912     0070                     ?_CLOCK_Initialize:	
  2913                           ; 1 bytes @ 0x0
  2914                           
  2915     0070                     ??_CLOCK_Initialize:	
  2916                           ; 1 bytes @ 0x0
  2917                           
  2918     0070                     ?_main:	
  2919                           ; 1 bytes @ 0x0
  2920                           
  2921     0070                     CRC_SetScannerAddressLimit@startAddr:	
  2922                           ; 2 bytes @ 0x0
  2923                           
  2924     0070                     INT_SetInterruptHandler@InterruptHandler:	
  2925                           ; 2 bytes @ 0x0
  2926                           
  2927                           
  2928                           ; 2 bytes @ 0x0
  2929     0070                     	ds	2
  2930     0072                     ??_INT_SetInterruptHandler:
  2931     0072                     ??_INTERRUPT_Initialize:	
  2932                           ; 1 bytes @ 0x2
  2933                           
  2934     0072                     CRC_SetScannerAddressLimit@endAddr:	
  2935                           ; 1 bytes @ 0x2
  2936                           
  2937                           
  2938                           ; 2 bytes @ 0x2
  2939     0072                     	ds	2
  2940     0074                     ?_CLB1_Configure:
  2941     0074                     ??_CRC_SetScannerAddressLimit:	
  2942                           ; 1 bytes @ 0x4
  2943                           
  2944     0074                     CLB1_Configure@start_address:	
  2945                           ; 1 bytes @ 0x4
  2946                           
  2947                           
  2948                           ; 2 bytes @ 0x4
  2949     0074                     	ds	2
  2950     0076                     ??_CLB1_Configure:
  2951     0076                     CLB1_Configure@end_address:	
  2952                           ; 1 bytes @ 0x6
  2953                           
  2954                           
  2955                           ; 2 bytes @ 0x6
  2956     0076                     	ds	2
  2957     0078                     ??_SYSTEM_Initialize:
  2958     0078                     ??_CLB1_Initialize:	
  2959                           ; 1 bytes @ 0x8
  2960                           
  2961     0078                     ??_main:	
  2962                           ; 1 bytes @ 0x8
  2963                           
  2964                           
  2965                           ; 1 bytes @ 0x8
  2966     0078                     	ds	2
  2967     007A                     main@cnt:
  2968                           
  2969                           ; 1 bytes @ 0xA
  2970     007A                     	ds	1
  2971                           
  2972                           	psect	maintext
  2973     0123                     __pmaintext:	
  2974 ;;
  2975 ;;Main: autosize = 0, tempsize = 2, incstack = 0, save=0
  2976 ;;
  2977 ;; *************** function _main *****************
  2978 ;; Defined at:
  2979 ;;		line 39 in file "main.c"
  2980 ;; Parameters:    Size  Location     Type
  2981 ;;		None
  2982 ;; Auto vars:     Size  Location     Type
  2983 ;;  cnt             1   10[COMMON] unsigned char 
  2984 ;; Return value:  Size  Location     Type
  2985 ;;                  2  368[None  ] int 
  2986 ;; Registers used:
  2987 ;;		wreg, status,2, status,0, pclath, cstack
  2988 ;; Tracked objects:
  2989 ;;		On entry : B3F/0
  2990 ;;		On exit  : 0/0
  2991 ;;		Unchanged: 0/0
  2992 ;; Data sizes:     COMMON   BANK0   BANK1   BANK2   BANK3   BANK4   BANK5   BANK6   BANK7   BANK8   BANK9  BANK10  BANK1
      +1  BANK12
  2993 ;;      Params:         0       0       0       0       0       0       0       0       0       0       0       0       
      +0       0
  2994 ;;      Locals:         1       0       0       0       0       0       0       0       0       0       0       0       
      +0       0
  2995 ;;      Temps:          2       0       0       0       0       0       0       0       0       0       0       0       
      +0       0
  2996 ;;      Totals:         3       0       0       0       0       0       0       0       0       0       0       0       
      +0       0
  2997 ;;Total ram usage:        3 bytes
  2998 ;; Hardware stack levels required when called: 6
  2999 ;; This function calls:
  3000 ;;		_SYSTEM_Initialize
  3001 ;; This function is called by:
  3002 ;;		Startup code after reset
  3003 ;; This function uses a non-reentrant model
  3004 ;;
  3005                           
  3006     0123                     _main:	
  3007                           ;psect for function _main
  3008                           
  3009     0123                     l1389:	
  3010                           ;incstack = 0
  3011                           ; Regs used in _main: [wreg+status,2+status,0+pclath+cstack]
  3012                           
  3013                           
  3014                           ;main.c: 41:     SYSTEM_Initialize();
  3015     0123  3181  213F  3181   	fcall	_SYSTEM_Initialize
  3016     0126                     l1391:
  3017                           
  3018                           ;main.c: 59:    CLBSWINL = 0;
  3019     0126  014A               	movlb	10	; select bank10
  3020     0127  0190               	clrf	16	;volatile
  3021     0128                     l1393:
  3022                           
  3023                           ;main.c: 61:     for( unsigned char cnt = 0x00 ; ; cnt++ )
  3024     0128  01FA               	clrf	main@cnt
  3025     0129                     l1395:
  3026                           
  3027                           ;main.c: 62:     {;main.c: 63:         _delay((unsigned long)((1000)*(4000000/4000.0)));
  3028     0129  3006               	movlw	6
  3029     012A  00F9               	movwf	??_main+1
  3030     012B  3013               	movlw	19
  3031     012C  00F8               	movwf	??_main
  3032     012D  30AE               	movlw	174
  3033     012E                     u317:
  3034     012E  0B89               	decfsz	9,f
  3035     012F  292E               	goto	u317
  3036     0130  0BF8               	decfsz	??_main,f
  3037     0131  292E               	goto	u317
  3038     0132  0BF9               	decfsz	??_main+1,f
  3039     0133  292E               	goto	u317
  3040     0134                     l1397:
  3041                           
  3042                           ;main.c: 64:         CLBSWINL = cnt & 0x0F ;
  3043     0134  087A               	movf	main@cnt,w
  3044     0135  390F               	andlw	15
  3045     0136  014A               	movlb	10	; select bank10
  3046     0137  0090               	movwf	16	;volatile
  3047     0138                     l1399:
  3048                           
  3049                           ;main.c: 65:     }
  3050     0138  3001               	movlw	1
  3051     0139  00F8               	movwf	??_main
  3052     013A  0878               	movf	??_main,w
  3053     013B  07FA               	addwf	main@cnt,f
  3054     013C  2929               	goto	l1395
  3055     013D  3180  2814         	ljmp	start
  3056     013F                     __end_of_main:
  3057                           
  3058                           	psect	text1
  3059     013F                     __ptext1:	
  3060 ;; *************** function _SYSTEM_Initialize *****************
  3061 ;; Defined at:
  3062 ;;		line 39 in file "mcc_generated_files/system/src/system.c"
  3063 ;; Parameters:    Size  Location     Type
  3064 ;;		None
  3065 ;; Auto vars:     Size  Location     Type
  3066 ;;		None
  3067 ;; Return value:  Size  Location     Type
  3068 ;;                  1    wreg      void 
  3069 ;; Registers used:
  3070 ;;		wreg, status,2, status,0, pclath, cstack
  3071 ;; Tracked objects:
  3072 ;;		On entry : 0/0
  3073 ;;		On exit  : 0/0
  3074 ;;		Unchanged: 0/0
  3075 ;; Data sizes:     COMMON   BANK0   BANK1   BANK2   BANK3   BANK4   BANK5   BANK6   BANK7   BANK8   BANK9  BANK10  BANK1
      +1  BANK12
  3076 ;;      Params:         0       0       0       0       0       0       0       0       0       0       0       0       
      +0       0
  3077 ;;      Locals:         0       0       0       0       0       0       0       0       0       0       0       0       
      +0       0
  3078 ;;      Temps:          0       0       0       0       0       0       0       0       0       0       0       0       
      +0       0
  3079 ;;      Totals:         0       0       0       0       0       0       0       0       0       0       0       0       
      +0       0
  3080 ;;Total ram usage:        0 bytes
  3081 ;; Hardware stack levels used: 1
  3082 ;; Hardware stack levels required when called: 5
  3083 ;; This function calls:
  3084 ;;		_CLB1_Initialize
  3085 ;;		_CLOCK_Initialize
  3086 ;;		_CRC_Initialize
  3087 ;;		_INTERRUPT_Initialize
  3088 ;;		_NVM_Initialize
  3089 ;;		_PIN_MANAGER_Initialize
  3090 ;; This function is called by:
  3091 ;;		_main
  3092 ;; This function uses a non-reentrant model
  3093 ;;
  3094                           
  3095     013F                     _SYSTEM_Initialize:	
  3096                           ;psect for function _SYSTEM_Initialize
  3097                           
  3098     013F                     l1375:	
  3099                           ;incstack = 0
  3100                           ; Regs used in _SYSTEM_Initialize: [wreg+status,2+status,0+pclath+cstack]
  3101                           
  3102                           
  3103                           ;mcc_generated_files/system/src/system.c: 41:     CLOCK_Initialize();
  3104     013F  3181  2167  3181   	fcall	_CLOCK_Initialize
  3105                           
  3106                           ;mcc_generated_files/system/src/system.c: 42:     CLB1_Initialize();
  3107     0142  3181  2106  3181   	fcall	_CLB1_Initialize
  3108                           
  3109                           ;mcc_generated_files/system/src/system.c: 43:     PIN_MANAGER_Initialize();
  3110     0145  3180  2085  3181   	fcall	_PIN_MANAGER_Initialize
  3111                           
  3112                           ;mcc_generated_files/system/src/system.c: 44:     CRC_Initialize();
  3113     0148  3180  20BC  3181   	fcall	_CRC_Initialize
  3114     014B                     l1377:
  3115                           
  3116                           ;mcc_generated_files/system/src/system.c: 45:     NVM_Initialize();
  3117     014B  3181  2185  3181   	fcall	_NVM_Initialize
  3118     014E                     l1379:
  3119                           
  3120                           ;mcc_generated_files/system/src/system.c: 46:     INTERRUPT_Initialize();
  3121     014E  3181  2152  3181   	fcall	_INTERRUPT_Initialize
  3122     0151                     l399:
  3123     0151  0008               	return
  3124     0152                     __end_of_SYSTEM_Initialize:
  3125                           
  3126                           	psect	text2
  3127     0085                     __ptext2:	
  3128 ;; *************** function _PIN_MANAGER_Initialize *****************
  3129 ;; Defined at:
  3130 ;;		line 38 in file "mcc_generated_files/system/src/pins.c"
  3131 ;; Parameters:    Size  Location     Type
  3132 ;;		None
  3133 ;; Auto vars:     Size  Location     Type
  3134 ;;		None
  3135 ;; Return value:  Size  Location     Type
  3136 ;;                  1    wreg      void 
  3137 ;; Registers used:
  3138 ;;		wreg, status,2
  3139 ;; Tracked objects:
  3140 ;;		On entry : 0/0
  3141 ;;		On exit  : 0/0
  3142 ;;		Unchanged: 0/0
  3143 ;; Data sizes:     COMMON   BANK0   BANK1   BANK2   BANK3   BANK4   BANK5   BANK6   BANK7   BANK8   BANK9  BANK10  BANK1
      +1  BANK12
  3144 ;;      Params:         0       0       0       0       0       0       0       0       0       0       0       0       
      +0       0
  3145 ;;      Locals:         0       0       0       0       0       0       0       0       0       0       0       0       
      +0       0
  3146 ;;      Temps:          0       0       0       0       0       0       0       0       0       0       0       0       
      +0       0
  3147 ;;      Totals:         0       0       0       0       0       0       0       0       0       0       0       0       
      +0       0
  3148 ;;Total ram usage:        0 bytes
  3149 ;; Hardware stack levels used: 1
  3150 ;; Hardware stack levels required when called: 2
  3151 ;; This function calls:
  3152 ;;		Nothing
  3153 ;; This function is called by:
  3154 ;;		_SYSTEM_Initialize
  3155 ;; This function uses a non-reentrant model
  3156 ;;
  3157                           
  3158     0085                     _PIN_MANAGER_Initialize:	
  3159                           ;psect for function _PIN_MANAGER_Initialize
  3160                           
  3161     0085                     l1003:	
  3162                           ;incstack = 0
  3163                           ; Regs used in _PIN_MANAGER_Initialize: [wreg+status,2]
  3164                           
  3165                           
  3166                           ;mcc_generated_files/system/src/pins.c: 43:     LATA = 0x0;
  3167     0085  0140               	movlb	0	; select bank0
  3168     0086  0198               	clrf	24	;volatile
  3169                           
  3170                           ;mcc_generated_files/system/src/pins.c: 44:     LATB = 0x0;
  3171     0087  0199               	clrf	25	;volatile
  3172                           
  3173                           ;mcc_generated_files/system/src/pins.c: 45:     LATC = 0x0;
  3174     0088  019A               	clrf	26	;volatile
  3175     0089                     l1005:
  3176                           
  3177                           ;mcc_generated_files/system/src/pins.c: 50:     TRISA = 0x37;
  3178     0089  3037               	movlw	55
  3179     008A  0092               	movwf	18	;volatile
  3180     008B                     l1007:
  3181                           
  3182                           ;mcc_generated_files/system/src/pins.c: 51:     TRISB = 0xF0;
  3183     008B  30F0               	movlw	240
  3184     008C  0093               	movwf	19	;volatile
  3185     008D                     l1009:
  3186                           
  3187                           ;mcc_generated_files/system/src/pins.c: 52:     TRISC = 0xF0;
  3188     008D  30F0               	movlw	240
  3189     008E  0094               	movwf	20	;volatile
  3190     008F                     l1011:
  3191                           
  3192                           ;mcc_generated_files/system/src/pins.c: 57:     ANSELA = 0x37;
  3193     008F  3037               	movlw	55
  3194     0090  017D               	movlb	61	; select bank61
  3195     0091  008C               	movwf	12	;volatile
  3196     0092                     l1013:
  3197                           
  3198                           ;mcc_generated_files/system/src/pins.c: 58:     ANSELB = 0xF0;
  3199     0092  30F0               	movlw	240
  3200     0093  0096               	movwf	22	;volatile
  3201     0094                     l1015:
  3202                           
  3203                           ;mcc_generated_files/system/src/pins.c: 59:     ANSELC = 0xF0;
  3204     0094  30F0               	movlw	240
  3205     0095  00A0               	movwf	32	;volatile
  3206                           
  3207                           ;mcc_generated_files/system/src/pins.c: 64:     WPUA = 0x0;
  3208     0096  018D               	clrf	13	;volatile
  3209                           
  3210                           ;mcc_generated_files/system/src/pins.c: 65:     WPUB = 0x0;
  3211     0097  0197               	clrf	23	;volatile
  3212                           
  3213                           ;mcc_generated_files/system/src/pins.c: 66:     WPUC = 0x0;
  3214     0098  01A1               	clrf	33	;volatile
  3215                           
  3216                           ;mcc_generated_files/system/src/pins.c: 72:     ODCONA = 0x0;
  3217     0099  018E               	clrf	14	;volatile
  3218                           
  3219                           ;mcc_generated_files/system/src/pins.c: 73:     ODCONB = 0x0;
  3220     009A  0198               	clrf	24	;volatile
  3221                           
  3222                           ;mcc_generated_files/system/src/pins.c: 74:     ODCONC = 0x0;
  3223     009B  01A2               	clrf	34	;volatile
  3224     009C                     l1017:
  3225                           
  3226                           ;mcc_generated_files/system/src/pins.c: 78:     SLRCONA = 0x37;
  3227     009C  3037               	movlw	55
  3228     009D  008F               	movwf	15	;volatile
  3229     009E                     l1019:
  3230                           
  3231                           ;mcc_generated_files/system/src/pins.c: 79:     SLRCONB = 0xF0;
  3232     009E  30F0               	movlw	240
  3233     009F  0099               	movwf	25	;volatile
  3234     00A0                     l1021:
  3235                           
  3236                           ;mcc_generated_files/system/src/pins.c: 80:     SLRCONC = 0xFF;
  3237     00A0  30FF               	movlw	255
  3238     00A1  00A3               	movwf	35	;volatile
  3239     00A2                     l1023:
  3240                           
  3241                           ;mcc_generated_files/system/src/pins.c: 84:     INLVLA = 0x3F;
  3242     00A2  303F               	movlw	63
  3243     00A3  0090               	movwf	16	;volatile
  3244     00A4                     l1025:
  3245                           
  3246                           ;mcc_generated_files/system/src/pins.c: 85:     INLVLB = 0xF0;
  3247     00A4  30F0               	movlw	240
  3248     00A5  009A               	movwf	26	;volatile
  3249     00A6                     l1027:
  3250                           
  3251                           ;mcc_generated_files/system/src/pins.c: 86:     INLVLC = 0xF0;
  3252     00A6  30F0               	movlw	240
  3253     00A7  00A4               	movwf	36	;volatile
  3254     00A8                     l1029:
  3255                           
  3256                           ;mcc_generated_files/system/src/pins.c: 91:     RC0PPS = 0x24;
  3257     00A8  3024               	movlw	36
  3258     00A9  017B               	movlb	59	; select bank59
  3259     00AA  009C               	movwf	28	;volatile
  3260     00AB                     l1031:
  3261                           
  3262                           ;mcc_generated_files/system/src/pins.c: 92:     RC1PPS = 0x25;
  3263     00AB  3025               	movlw	37
  3264     00AC  009D               	movwf	29	;volatile
  3265     00AD                     l1033:
  3266                           
  3267                           ;mcc_generated_files/system/src/pins.c: 93:     RC2PPS = 0x26;
  3268     00AD  3026               	movlw	38
  3269     00AE  009E               	movwf	30	;volatile
  3270     00AF                     l1035:
  3271                           
  3272                           ;mcc_generated_files/system/src/pins.c: 94:     RC3PPS = 0x27;
  3273     00AF  3027               	movlw	39
  3274     00B0  009F               	movwf	31	;volatile
  3275                           
  3276                           ;mcc_generated_files/system/src/pins.c: 103:     IOCAP = 0x0;
  3277     00B1  017D               	movlb	61	; select bank61
  3278     00B2  0191               	clrf	17	;volatile
  3279                           
  3280                           ;mcc_generated_files/system/src/pins.c: 104:     IOCAN = 0x0;
  3281     00B3  0192               	clrf	18	;volatile
  3282                           
  3283                           ;mcc_generated_files/system/src/pins.c: 105:     IOCAF = 0x0;
  3284     00B4  0193               	clrf	19	;volatile
  3285                           
  3286                           ;mcc_generated_files/system/src/pins.c: 106:     IOCBP = 0x0;
  3287     00B5  019B               	clrf	27	;volatile
  3288                           
  3289                           ;mcc_generated_files/system/src/pins.c: 107:     IOCBN = 0x0;
  3290     00B6  019C               	clrf	28	;volatile
  3291                           
  3292                           ;mcc_generated_files/system/src/pins.c: 108:     IOCBF = 0x0;
  3293     00B7  019D               	clrf	29	;volatile
  3294                           
  3295                           ;mcc_generated_files/system/src/pins.c: 109:     IOCCP = 0x0;
  3296     00B8  01A5               	clrf	37	;volatile
  3297                           
  3298                           ;mcc_generated_files/system/src/pins.c: 110:     IOCCN = 0x0;
  3299     00B9  01A6               	clrf	38	;volatile
  3300                           
  3301                           ;mcc_generated_files/system/src/pins.c: 111:     IOCCF = 0x0;
  3302     00BA  01A7               	clrf	39	;volatile
  3303     00BB                     l168:
  3304     00BB  0008               	return
  3305     00BC                     __end_of_PIN_MANAGER_Initialize:
  3306                           
  3307                           	psect	text3
  3308     0185                     __ptext3:	
  3309 ;; *************** function _NVM_Initialize *****************
  3310 ;; Defined at:
  3311 ;;		line 43 in file "mcc_generated_files/nvm/src/nvm.c"
  3312 ;; Parameters:    Size  Location     Type
  3313 ;;		None
  3314 ;; Auto vars:     Size  Location     Type
  3315 ;;		None
  3316 ;; Return value:  Size  Location     Type
  3317 ;;                  1    wreg      void 
  3318 ;; Registers used:
  3319 ;;		status,2, status,0, pclath, cstack
  3320 ;; Tracked objects:
  3321 ;;		On entry : 0/0
  3322 ;;		On exit  : 0/0
  3323 ;;		Unchanged: 0/0
  3324 ;; Data sizes:     COMMON   BANK0   BANK1   BANK2   BANK3   BANK4   BANK5   BANK6   BANK7   BANK8   BANK9  BANK10  BANK1
      +1  BANK12
  3325 ;;      Params:         0       0       0       0       0       0       0       0       0       0       0       0       
      +0       0
  3326 ;;      Locals:         0       0       0       0       0       0       0       0       0       0       0       0       
      +0       0
  3327 ;;      Temps:          0       0       0       0       0       0       0       0       0       0       0       0       
      +0       0
  3328 ;;      Totals:         0       0       0       0       0       0       0       0       0       0       0       0       
      +0       0
  3329 ;;Total ram usage:        0 bytes
  3330 ;; Hardware stack levels used: 1
  3331 ;; Hardware stack levels required when called: 3
  3332 ;; This function calls:
  3333 ;;		_NVM_StatusClear
  3334 ;; This function is called by:
  3335 ;;		_SYSTEM_Initialize
  3336 ;; This function uses a non-reentrant model
  3337 ;;
  3338                           
  3339     0185                     _NVM_Initialize:	
  3340                           ;psect for function _NVM_Initialize
  3341                           
  3342     0185                     l1073:	
  3343                           ;incstack = 0
  3344                           ; Regs used in _NVM_Initialize: [status,2+status,0+pclath+cstack]
  3345                           
  3346                           
  3347                           ;mcc_generated_files/nvm/src/nvm.c: 45:     NVM_StatusClear();
  3348     0185  3181  2189  3181   	fcall	_NVM_StatusClear
  3349     0188                     l316:
  3350     0188  0008               	return
  3351     0189                     __end_of_NVM_Initialize:
  3352                           
  3353                           	psect	text4
  3354     0189                     __ptext4:	
  3355 ;; *************** function _NVM_StatusClear *****************
  3356 ;; Defined at:
  3357 ;;		line 65 in file "mcc_generated_files/nvm/src/nvm.c"
  3358 ;; Parameters:    Size  Location     Type
  3359 ;;		None
  3360 ;; Auto vars:     Size  Location     Type
  3361 ;;		None
  3362 ;; Return value:  Size  Location     Type
  3363 ;;                  1    wreg      void 
  3364 ;; Registers used:
  3365 ;;		None
  3366 ;; Tracked objects:
  3367 ;;		On entry : 0/0
  3368 ;;		On exit  : 0/0
  3369 ;;		Unchanged: 0/0
  3370 ;; Data sizes:     COMMON   BANK0   BANK1   BANK2   BANK3   BANK4   BANK5   BANK6   BANK7   BANK8   BANK9  BANK10  BANK1
      +1  BANK12
  3371 ;;      Params:         0       0       0       0       0       0       0       0       0       0       0       0       
      +0       0
  3372 ;;      Locals:         0       0       0       0       0       0       0       0       0       0       0       0       
      +0       0
  3373 ;;      Temps:          0       0       0       0       0       0       0       0       0       0       0       0       
      +0       0
  3374 ;;      Totals:         0       0       0       0       0       0       0       0       0       0       0       0       
      +0       0
  3375 ;;Total ram usage:        0 bytes
  3376 ;; Hardware stack levels used: 1
  3377 ;; Hardware stack levels required when called: 2
  3378 ;; This function calls:
  3379 ;;		Nothing
  3380 ;; This function is called by:
  3381 ;;		_NVM_Initialize
  3382 ;; This function uses a non-reentrant model
  3383 ;;
  3384                           
  3385     0189                     _NVM_StatusClear:	
  3386                           ;psect for function _NVM_StatusClear
  3387                           
  3388     0189                     l951:	
  3389                           ;incstack = 0
  3390                           ; Regs used in _NVM_StatusClear: []
  3391                           
  3392                           
  3393                           ;mcc_generated_files/nvm/src/nvm.c: 67:     NVMCON1bits.WRERR = 0;
  3394     0189  0179               	movlb	57	; select bank57
  3395     018A  1190               	bcf	16,3	;volsfr
  3396     018B                     l329:
  3397     018B  0008               	return
  3398     018C                     __end_of_NVM_StatusClear:
  3399                           
  3400                           	psect	text5
  3401     0152                     __ptext5:	
  3402 ;; *************** function _INTERRUPT_Initialize *****************
  3403 ;; Defined at:
  3404 ;;		line 40 in file "mcc_generated_files/system/src/interrupt.c"
  3405 ;; Parameters:    Size  Location     Type
  3406 ;;		None
  3407 ;; Auto vars:     Size  Location     Type
  3408 ;;		None
  3409 ;; Return value:  Size  Location     Type
  3410 ;;                  1    wreg      void 
  3411 ;; Registers used:
  3412 ;;		wreg, status,2, status,0, pclath, cstack
  3413 ;; Tracked objects:
  3414 ;;		On entry : 0/0
  3415 ;;		On exit  : 0/0
  3416 ;;		Unchanged: 0/0
  3417 ;; Data sizes:     COMMON   BANK0   BANK1   BANK2   BANK3   BANK4   BANK5   BANK6   BANK7   BANK8   BANK9  BANK10  BANK1
      +1  BANK12
  3418 ;;      Params:         0       0       0       0       0       0       0       0       0       0       0       0       
      +0       0
  3419 ;;      Locals:         0       0       0       0       0       0       0       0       0       0       0       0       
      +0       0
  3420 ;;      Temps:          0       0       0       0       0       0       0       0       0       0       0       0       
      +0       0
  3421 ;;      Totals:         0       0       0       0       0       0       0       0       0       0       0       0       
      +0       0
  3422 ;;Total ram usage:        0 bytes
  3423 ;; Hardware stack levels used: 1
  3424 ;; Hardware stack levels required when called: 3
  3425 ;; This function calls:
  3426 ;;		_INT_SetInterruptHandler
  3427 ;; This function is called by:
  3428 ;;		_SYSTEM_Initialize
  3429 ;; This function uses a non-reentrant model
  3430 ;;
  3431                           
  3432     0152                     _INTERRUPT_Initialize:	
  3433                           ;psect for function _INTERRUPT_Initialize
  3434                           
  3435     0152                     l1371:	
  3436                           ;incstack = 0
  3437                           ; Regs used in _INTERRUPT_Initialize: [wreg+status,2+status,0+pclath+cstack]
  3438                           
  3439                           
  3440                           ;mcc_generated_files/system/src/interrupt.c: 44:     (PIR0bits.INTF = 0);
  3441     0152  0141               	movlb	1	; select bank1
  3442     0153  100C               	bcf	12,0	;volatile
  3443                           
  3444                           ;mcc_generated_files/system/src/interrupt.c: 45:     (INTCONbits.INTEDG = 1);
  3445     0154  140B               	bsf	11,0	;volatile
  3446     0155                     l1373:
  3447                           
  3448                           ;mcc_generated_files/system/src/interrupt.c: 47:     INT_SetInterruptHandler(INT_Default
      +                          InterruptHandler);
  3449     0155  3000               	movlw	0
  3450     0156  00F0               	movwf	INT_SetInterruptHandler@InterruptHandler
  3451     0157  3000               	movlw	0
  3452     0158  00F1               	movwf	INT_SetInterruptHandler@InterruptHandler+1
  3453     0159  3181  2170  3181   	fcall	_INT_SetInterruptHandler
  3454     015C                     l273:
  3455     015C  0008               	return
  3456     015D                     __end_of_INTERRUPT_Initialize:
  3457                           
  3458                           	psect	text6
  3459     0170                     __ptext6:	
  3460 ;; *************** function _INT_SetInterruptHandler *****************
  3461 ;; Defined at:
  3462 ;;		line 90 in file "mcc_generated_files/system/src/interrupt.c"
  3463 ;; Parameters:    Size  Location     Type
  3464 ;;  InterruptHan    2    0[COMMON] PTR FTN()void 
  3465 ;;		 -> INT_DefaultInterruptHandler(1), 
  3466 ;; Auto vars:     Size  Location     Type
  3467 ;;		None
  3468 ;; Return value:  Size  Location     Type
  3469 ;;                  1    wreg      void 
  3470 ;; Registers used:
  3471 ;;		wreg
  3472 ;; Tracked objects:
  3473 ;;		On entry : 0/0
  3474 ;;		On exit  : 0/0
  3475 ;;		Unchanged: 0/0
  3476 ;; Data sizes:     COMMON   BANK0   BANK1   BANK2   BANK3   BANK4   BANK5   BANK6   BANK7   BANK8   BANK9  BANK10  BANK1
      +1  BANK12
  3477 ;;      Params:         2       0       0       0       0       0       0       0       0       0       0       0       
      +0       0
  3478 ;;      Locals:         0       0       0       0       0       0       0       0       0       0       0       0       
      +0       0
  3479 ;;      Temps:          0       0       0       0       0       0       0       0       0       0       0       0       
      +0       0
  3480 ;;      Totals:         2       0       0       0       0       0       0       0       0       0       0       0       
      +0       0
  3481 ;;Total ram usage:        2 bytes
  3482 ;; Hardware stack levels used: 1
  3483 ;; Hardware stack levels required when called: 2
  3484 ;; This function calls:
  3485 ;;		Nothing
  3486 ;; This function is called by:
  3487 ;;		_INTERRUPT_Initialize
  3488 ;; This function uses a non-reentrant model
  3489 ;;
  3490                           
  3491     0170                     _INT_SetInterruptHandler:	
  3492                           ;psect for function _INT_SetInterruptHandler
  3493                           
  3494     0170                     l1337:	
  3495                           ;incstack = 0
  3496                           ; Regs used in _INT_SetInterruptHandler: [wreg]
  3497                           
  3498                           
  3499                           ;mcc_generated_files/system/src/interrupt.c: 91:     INT_InterruptHandler = InterruptHan
      +                          dler;
  3500     0170  0871               	movf	INT_SetInterruptHandler@InterruptHandler+1,w
  3501     0171  0140               	movlb	0	; select bank0
  3502     0172  00A1               	movwf	_INT_InterruptHandler+1
  3503     0173  0870               	movf	INT_SetInterruptHandler@InterruptHandler,w
  3504     0174  00A0               	movwf	_INT_InterruptHandler
  3505     0175                     l290:
  3506     0175  0008               	return
  3507     0176                     __end_of_INT_SetInterruptHandler:
  3508                           
  3509                           	psect	text7
  3510     00BC                     __ptext7:	
  3511 ;; *************** function _CRC_Initialize *****************
  3512 ;; Defined at:
  3513 ;;		line 43 in file "mcc_generated_files/crc/src/crc.c"
  3514 ;; Parameters:    Size  Location     Type
  3515 ;;		None
  3516 ;; Auto vars:     Size  Location     Type
  3517 ;;		None
  3518 ;; Return value:  Size  Location     Type
  3519 ;;                  1    wreg      void 
  3520 ;; Registers used:
  3521 ;;		wreg, status,2, status,0
  3522 ;; Tracked objects:
  3523 ;;		On entry : 0/0
  3524 ;;		On exit  : 0/0
  3525 ;;		Unchanged: 0/0
  3526 ;; Data sizes:     COMMON   BANK0   BANK1   BANK2   BANK3   BANK4   BANK5   BANK6   BANK7   BANK8   BANK9  BANK10  BANK1
      +1  BANK12
  3527 ;;      Params:         0       0       0       0       0       0       0       0       0       0       0       0       
      +0       0
  3528 ;;      Locals:         0       0       0       0       0       0       0       0       0       0       0       0       
      +0       0
  3529 ;;      Temps:          0       0       0       0       0       0       0       0       0       0       0       0       
      +0       0
  3530 ;;      Totals:         0       0       0       0       0       0       0       0       0       0       0       0       
      +0       0
  3531 ;;Total ram usage:        0 bytes
  3532 ;; Hardware stack levels used: 1
  3533 ;; Hardware stack levels required when called: 2
  3534 ;; This function calls:
  3535 ;;		Nothing
  3536 ;; This function is called by:
  3537 ;;		_SYSTEM_Initialize
  3538 ;; This function uses a non-reentrant model
  3539 ;;
  3540                           
  3541     00BC                     _CRC_Initialize:	
  3542                           ;psect for function _CRC_Initialize
  3543                           
  3544     00BC                     l953:	
  3545                           ;incstack = 0
  3546                           ; Regs used in _CRC_Initialize: [wreg+status,2+status,0]
  3547                           
  3548                           
  3549                           ;mcc_generated_files/crc/src/crc.c: 45:     CRCCON0 = 0x00;
  3550     00BC  0179               	movlb	57	; select bank57
  3551     00BD  01A5               	clrf	37	;volatile
  3552     00BE                     l955:
  3553                           
  3554                           ;mcc_generated_files/crc/src/crc.c: 48:     CRCCON1 = 0x7;
  3555     00BE  3007               	movlw	7
  3556     00BF  00A6               	movwf	38	;volatile
  3557     00C0                     l957:
  3558                           
  3559                           ;mcc_generated_files/crc/src/crc.c: 50:     CRCCON2 = 0x7;
  3560     00C0  3007               	movlw	7
  3561     00C1  00A7               	movwf	39	;volatile
  3562     00C2                     l959:
  3563                           
  3564                           ;mcc_generated_files/crc/src/crc.c: 53:     CRCCON0bits.SETUP = 0b10;
  3565     00C2  0825               	movf	37,w	;volatile
  3566     00C3  39F3               	andlw	-13
  3567     00C4  3808               	iorlw	8
  3568     00C5  00A5               	movwf	37	;volatile
  3569     00C6                     l961:
  3570                           
  3571                           ;mcc_generated_files/crc/src/crc.c: 55:     CRCXORT = 0x0;
  3572     00C6  01A4               	clrf	36	;volatile
  3573     00C7                     l963:
  3574                           
  3575                           ;mcc_generated_files/crc/src/crc.c: 57:     CRCXORU = 0x0;
  3576     00C7  01A3               	clrf	35	;volatile
  3577     00C8                     l965:
  3578                           
  3579                           ;mcc_generated_files/crc/src/crc.c: 59:     CRCXORH = 0x0;
  3580     00C8  01A2               	clrf	34	;volatile
  3581     00C9                     l967:
  3582                           
  3583                           ;mcc_generated_files/crc/src/crc.c: 61:     CRCXORL = 0xD5;
  3584     00C9  30D5               	movlw	213
  3585     00CA  00A1               	movwf	33	;volatile
  3586     00CB                     l969:
  3587                           
  3588                           ;mcc_generated_files/crc/src/crc.c: 64:     CRCCON0bits.SETUP = 0b00;
  3589     00CB  30F3               	movlw	-13
  3590     00CC  05A5               	andwf	37,f	;volatile
  3591     00CD                     l971:
  3592                           
  3593                           ;mcc_generated_files/crc/src/crc.c: 66:     CRCOUTT = 0x0;
  3594     00CD  01A4               	clrf	36	;volatile
  3595     00CE                     l973:
  3596                           
  3597                           ;mcc_generated_files/crc/src/crc.c: 68:     CRCOUTU = 0x0;
  3598     00CE  01A3               	clrf	35	;volatile
  3599     00CF                     l975:
  3600                           
  3601                           ;mcc_generated_files/crc/src/crc.c: 70:     CRCOUTH = 0x0;
  3602     00CF  01A2               	clrf	34	;volatile
  3603     00D0                     l977:
  3604                           
  3605                           ;mcc_generated_files/crc/src/crc.c: 72:     CRCOUTL = 0x0;
  3606     00D0  01A1               	clrf	33	;volatile
  3607     00D1                     l979:
  3608                           
  3609                           ;mcc_generated_files/crc/src/crc.c: 75:     CRCDATAT = 0x0;
  3610     00D1  01A0               	clrf	32	;volatile
  3611     00D2                     l981:
  3612                           
  3613                           ;mcc_generated_files/crc/src/crc.c: 77:     CRCDATAU = 0x0;
  3614     00D2  019F               	clrf	31	;volatile
  3615     00D3                     l983:
  3616                           
  3617                           ;mcc_generated_files/crc/src/crc.c: 79:     CRCDATAH = 0x0;
  3618     00D3  019E               	clrf	30	;volatile
  3619     00D4                     l985:
  3620                           
  3621                           ;mcc_generated_files/crc/src/crc.c: 81:     CRCDATAL = 0x0;
  3622     00D4  019D               	clrf	29	;volatile
  3623                           
  3624                           ;mcc_generated_files/crc/src/crc.c: 85:     SCANHADRH = 0xFF;
  3625     00D5  30FF               	movlw	255
  3626     00D6  0097               	movwf	23	;volatile
  3627                           
  3628                           ;mcc_generated_files/crc/src/crc.c: 87:     SCANHADRL = 0xFF;
  3629     00D7  30FF               	movlw	255
  3630     00D8  0096               	movwf	22	;volatile
  3631     00D9                     l987:
  3632                           
  3633                           ;mcc_generated_files/crc/src/crc.c: 89:     SCANLADRH = 0x0;
  3634     00D9  0194               	clrf	20	;volatile
  3635     00DA                     l989:
  3636                           
  3637                           ;mcc_generated_files/crc/src/crc.c: 91:     SCANLADRL = 0x0;
  3638     00DA  0193               	clrf	19	;volatile
  3639     00DB                     l991:
  3640                           
  3641                           ;mcc_generated_files/crc/src/crc.c: 93:     SCANTRIG = 0x0;
  3642     00DB  019A               	clrf	26	;volatile
  3643     00DC                     l993:
  3644                           
  3645                           ;mcc_generated_files/crc/src/crc.c: 96:     PIR1bits.CRCIF = 0;
  3646     00DC  0141               	movlb	1	; select bank1
  3647     00DD  108D               	bcf	13,1	;volatile
  3648     00DE                     l995:
  3649                           
  3650                           ;mcc_generated_files/crc/src/crc.c: 98:     PIE1bits.CRCIE = 0;
  3651     00DE  1097               	bcf	23,1	;volatile
  3652     00DF                     l997:
  3653                           
  3654                           ;mcc_generated_files/crc/src/crc.c: 101:     PIR1bits.SCANIF = 0;
  3655     00DF  110D               	bcf	13,2	;volatile
  3656     00E0                     l999:
  3657                           
  3658                           ;mcc_generated_files/crc/src/crc.c: 103:     PIE1bits.SCANIE = 0;
  3659     00E0  1117               	bcf	23,2	;volatile
  3660     00E1                     l1001:
  3661                           
  3662                           ;mcc_generated_files/crc/src/crc.c: 106:     CRCCON0 = 0x0;
  3663     00E1  0179               	movlb	57	; select bank57
  3664     00E2  01A5               	clrf	37	;volatile
  3665                           
  3666                           ;mcc_generated_files/crc/src/crc.c: 108:     SCANCON0 = 0x10;
  3667     00E3  3010               	movlw	16
  3668     00E4  0092               	movwf	18	;volatile
  3669     00E5                     l57:
  3670     00E5  0008               	return
  3671     00E6                     __end_of_CRC_Initialize:
  3672                           
  3673                           	psect	text8
  3674     0167                     __ptext8:	
  3675 ;; *************** function _CLOCK_Initialize *****************
  3676 ;; Defined at:
  3677 ;;		line 37 in file "mcc_generated_files/system/src/clock.c"
  3678 ;; Parameters:    Size  Location     Type
  3679 ;;		None
  3680 ;; Auto vars:     Size  Location     Type
  3681 ;;		None
  3682 ;; Return value:  Size  Location     Type
  3683 ;;                  1    wreg      void 
  3684 ;; Registers used:
  3685 ;;		wreg, status,2
  3686 ;; Tracked objects:
  3687 ;;		On entry : 0/0
  3688 ;;		On exit  : 0/0
  3689 ;;		Unchanged: 0/0
  3690 ;; Data sizes:     COMMON   BANK0   BANK1   BANK2   BANK3   BANK4   BANK5   BANK6   BANK7   BANK8   BANK9  BANK10  BANK1
      +1  BANK12
  3691 ;;      Params:         0       0       0       0       0       0       0       0       0       0       0       0       
      +0       0
  3692 ;;      Locals:         0       0       0       0       0       0       0       0       0       0       0       0       
      +0       0
  3693 ;;      Temps:          0       0       0       0       0       0       0       0       0       0       0       0       
      +0       0
  3694 ;;      Totals:         0       0       0       0       0       0       0       0       0       0       0       0       
      +0       0
  3695 ;;Total ram usage:        0 bytes
  3696 ;; Hardware stack levels used: 1
  3697 ;; Hardware stack levels required when called: 2
  3698 ;; This function calls:
  3699 ;;		Nothing
  3700 ;; This function is called by:
  3701 ;;		_SYSTEM_Initialize
  3702 ;; This function uses a non-reentrant model
  3703 ;;
  3704                           
  3705     0167                     _CLOCK_Initialize:	
  3706                           ;psect for function _CLOCK_Initialize
  3707                           
  3708     0167                     l1075:	
  3709                           ;incstack = 0
  3710                           ; Regs used in _CLOCK_Initialize: [wreg+status,2]
  3711                           
  3712                           
  3713                           ;mcc_generated_files/system/src/clock.c: 41:     OSCCON1 = 0x60;
  3714     0167  3060               	movlw	96
  3715     0168  0145               	movlb	5	; select bank5
  3716     0169  008D               	movwf	13	;volatile
  3717     016A                     l1077:
  3718                           
  3719                           ;mcc_generated_files/system/src/clock.c: 43:     OSCCON3 = 0x0;
  3720     016A  018F               	clrf	15	;volatile
  3721     016B                     l1079:
  3722                           
  3723                           ;mcc_generated_files/system/src/clock.c: 45:     OSCEN = 0x0;
  3724     016B  0191               	clrf	17	;volatile
  3725                           
  3726                           ;mcc_generated_files/system/src/clock.c: 47:     OSCFRQ = 0x2;
  3727     016C  3002               	movlw	2
  3728     016D  0093               	movwf	19	;volatile
  3729     016E                     l1081:
  3730                           
  3731                           ;mcc_generated_files/system/src/clock.c: 49:     OSCTUNE = 0x0;
  3732     016E  0192               	clrf	18	;volatile
  3733     016F                     l384:
  3734     016F  0008               	return
  3735     0170                     __end_of_CLOCK_Initialize:
  3736                           
  3737                           	psect	text9
  3738     0106                     __ptext9:	
  3739 ;; *************** function _CLB1_Initialize *****************
  3740 ;; Defined at:
  3741 ;;		line 45 in file "mcc_generated_files/clb/src/clb1.c"
  3742 ;; Parameters:    Size  Location     Type
  3743 ;;		None
  3744 ;; Auto vars:     Size  Location     Type
  3745 ;;		None
  3746 ;; Return value:  Size  Location     Type
  3747 ;;                  1    wreg      void 
  3748 ;; Registers used:
  3749 ;;		wreg, status,2, status,0, pclath, cstack
  3750 ;; Tracked objects:
  3751 ;;		On entry : 0/0
  3752 ;;		On exit  : 0/0
  3753 ;;		Unchanged: 0/0
  3754 ;; Data sizes:     COMMON   BANK0   BANK1   BANK2   BANK3   BANK4   BANK5   BANK6   BANK7   BANK8   BANK9  BANK10  BANK1
      +1  BANK12
  3755 ;;      Params:         0       0       0       0       0       0       0       0       0       0       0       0       
      +0       0
  3756 ;;      Locals:         0       0       0       0       0       0       0       0       0       0       0       0       
      +0       0
  3757 ;;      Temps:          0       0       0       0       0       0       0       0       0       0       0       0       
      +0       0
  3758 ;;      Totals:         0       0       0       0       0       0       0       0       0       0       0       0       
      +0       0
  3759 ;;Total ram usage:        0 bytes
  3760 ;; Hardware stack levels used: 1
  3761 ;; Hardware stack levels required when called: 4
  3762 ;; This function calls:
  3763 ;;		_CLB1_Configure
  3764 ;; This function is called by:
  3765 ;;		_SYSTEM_Initialize
  3766 ;; This function uses a non-reentrant model
  3767 ;;
  3768                           
  3769     0106                     _CLB1_Initialize:	
  3770                           ;psect for function _CLB1_Initialize
  3771                           
  3772     0106                     l1339:	
  3773                           ;incstack = 0
  3774                           ; Regs used in _CLB1_Initialize: [wreg+status,2+status,0+pclath+cstack]
  3775                           
  3776                           
  3777                           ;mcc_generated_files/clb/src/clb1.c: 48:     CLBCONbits.CLBEN = 0;
  3778     0106  014A               	movlb	10	; select bank10
  3779     0107  138C               	bcf	12,7	;volatile
  3780     0108                     l1341:
  3781                           
  3782                           ;mcc_generated_files/clb/src/clb1.c: 51:     CLB1_Configure((uint16_t) &start_clb_config
      +                          );
  3783     0108  301F               	movlw	low _start_clb_config
  3784     0109  00F4               	movwf	CLB1_Configure@start_address
  3785     010A  3000               	movlw	high _start_clb_config
  3786     010B  00F5               	movwf	CLB1_Configure@start_address+1
  3787     010C  3180  20E6  3181   	fcall	_CLB1_Configure
  3788     010F                     l1343:
  3789                           
  3790                           ;mcc_generated_files/clb/src/clb1.c: 54:     CLBCLK = 0x6;
  3791     010F  3006               	movlw	6
  3792     0110  014A               	movlb	10	; select bank10
  3793     0111  0095               	movwf	21	;volatile
  3794     0112                     l1345:
  3795                           
  3796                           ;mcc_generated_files/clb/src/clb1.c: 57:     CLBPPSCON1 = 0x0;
  3797     0112  0199               	clrf	25	;volatile
  3798     0113                     l1347:
  3799                           
  3800                           ;mcc_generated_files/clb/src/clb1.c: 60:     CLBPPSCON2 = 0x0;
  3801     0113  0198               	clrf	24	;volatile
  3802     0114                     l1349:
  3803                           
  3804                           ;mcc_generated_files/clb/src/clb1.c: 63:     CLBPPSCON3 = 0x0;
  3805     0114  0197               	clrf	23	;volatile
  3806     0115                     l1351:
  3807                           
  3808                           ;mcc_generated_files/clb/src/clb1.c: 66:     CLBPPSCON4 = 0x0;
  3809     0115  0196               	clrf	22	;volatile
  3810     0116                     l1353:
  3811                           
  3812                           ;mcc_generated_files/clb/src/clb1.c: 69:     PIR7bits.CLB1IF0 = 0;
  3813     0116  0141               	movlb	1	; select bank1
  3814     0117  1013               	bcf	19,0	;volatile
  3815     0118                     l1355:
  3816                           
  3817                           ;mcc_generated_files/clb/src/clb1.c: 71:     PIE7bits.CLB1IE0 = 0;
  3818     0118  101D               	bcf	29,0	;volatile
  3819     0119                     l1357:
  3820                           
  3821                           ;mcc_generated_files/clb/src/clb1.c: 74:     PIR7bits.CLB1IF1 = 0;
  3822     0119  1093               	bcf	19,1	;volatile
  3823     011A                     l1359:
  3824                           
  3825                           ;mcc_generated_files/clb/src/clb1.c: 76:     PIE7bits.CLB1IE1 = 0;
  3826     011A  109D               	bcf	29,1	;volatile
  3827     011B                     l1361:
  3828                           
  3829                           ;mcc_generated_files/clb/src/clb1.c: 79:     PIR7bits.CLB1IF2 = 0;
  3830     011B  1113               	bcf	19,2	;volatile
  3831     011C                     l1363:
  3832                           
  3833                           ;mcc_generated_files/clb/src/clb1.c: 81:     PIE7bits.CLB1IE2 = 0;
  3834     011C  111D               	bcf	29,2	;volatile
  3835     011D                     l1365:
  3836                           
  3837                           ;mcc_generated_files/clb/src/clb1.c: 84:     PIR7bits.CLB1IF3 = 0;
  3838     011D  1193               	bcf	19,3	;volatile
  3839     011E                     l1367:
  3840                           
  3841                           ;mcc_generated_files/clb/src/clb1.c: 86:     PIE7bits.CLB1IE3 = 0;
  3842     011E  119D               	bcf	29,3	;volatile
  3843     011F                     l1369:
  3844                           
  3845                           ;mcc_generated_files/clb/src/clb1.c: 89:     CLBCON = 0x80;
  3846     011F  3080               	movlw	128
  3847     0120  014A               	movlb	10	; select bank10
  3848     0121  008C               	movwf	12	;volatile
  3849     0122                     l212:
  3850     0122  0008               	return
  3851     0123                     __end_of_CLB1_Initialize:
  3852                           
  3853                           	psect	text10
  3854     00E6                     __ptext10:	
  3855 ;; *************** function _CLB1_Configure *****************
  3856 ;; Defined at:
  3857 ;;		line 108 in file "mcc_generated_files/clb/src/clb1.c"
  3858 ;; Parameters:    Size  Location     Type
  3859 ;;  start_addres    2    4[COMMON] unsigned short 
  3860 ;; Auto vars:     Size  Location     Type
  3861 ;;  end_address     2    6[COMMON] unsigned short 
  3862 ;; Return value:  Size  Location     Type
  3863 ;;                  1    wreg      void 
  3864 ;; Registers used:
  3865 ;;		wreg, status,2, status,0, pclath, cstack
  3866 ;; Tracked objects:
  3867 ;;		On entry : 0/0
  3868 ;;		On exit  : 0/0
  3869 ;;		Unchanged: 0/0
  3870 ;; Data sizes:     COMMON   BANK0   BANK1   BANK2   BANK3   BANK4   BANK5   BANK6   BANK7   BANK8   BANK9  BANK10  BANK1
      +1  BANK12
  3871 ;;      Params:         2       0       0       0       0       0       0       0       0       0       0       0       
      +0       0
  3872 ;;      Locals:         2       0       0       0       0       0       0       0       0       0       0       0       
      +0       0
  3873 ;;      Temps:          0       0       0       0       0       0       0       0       0       0       0       0       
      +0       0
  3874 ;;      Totals:         4       0       0       0       0       0       0       0       0       0       0       0       
      +0       0
  3875 ;;Total ram usage:        4 bytes
  3876 ;; Hardware stack levels used: 1
  3877 ;; Hardware stack levels required when called: 3
  3878 ;; This function calls:
  3879 ;;		_CRC_IsScannerBusy
  3880 ;;		_CRC_SetScannerAddressLimit
  3881 ;;		_CRC_StartNvmScanner
  3882 ;;		_CRC_StopNvmScanner
  3883 ;; This function is called by:
  3884 ;;		_CLB1_Initialize
  3885 ;; This function uses a non-reentrant model
  3886 ;;
  3887                           
  3888     00E6                     _CLB1_Configure:	
  3889                           ;psect for function _CLB1_Configure
  3890                           
  3891     00E6                     l1327:	
  3892                           ;incstack = 0
  3893                           ; Regs used in _CLB1_Configure: [wreg+status,2+status,0+pclath+cstack]
  3894                           
  3895                           
  3896                           ;mcc_generated_files/clb/src/clb1.c: 108: void CLB1_Configure(uint16_t start_address);mc
      +                          c_generated_files/clb/src/clb1.c: 109: {;mcc_generated_files/clb/src/clb1.c: 111:     ui
      +                          nt16_t end_address;;mcc_generated_files/clb/src/clb1.c: 113:     end_address = start_add
      +                          ress + 102UL;
  3897     00E6  0874               	movf	CLB1_Configure@start_address,w
  3898     00E7  3E66               	addlw	102
  3899     00E8  00F6               	movwf	CLB1_Configure@end_address
  3900     00E9  3000               	movlw	0
  3901     00EA  3D75               	addwfc	CLB1_Configure@start_address+1,w
  3902     00EB  00F7               	movwf	CLB1_Configure@end_address+1
  3903     00EC                     l1329:
  3904                           
  3905                           ;mcc_generated_files/clb/src/clb1.c: 116:     CRC_SetScannerAddressLimit(start_address, 
      +                          end_address);
  3906     00EC  0875               	movf	CLB1_Configure@start_address+1,w
  3907     00ED  00F1               	movwf	CRC_SetScannerAddressLimit@startAddr+1
  3908     00EE  0874               	movf	CLB1_Configure@start_address,w
  3909     00EF  00F0               	movwf	CRC_SetScannerAddressLimit@startAddr
  3910     00F0  0877               	movf	CLB1_Configure@end_address+1,w
  3911     00F1  00F3               	movwf	CRC_SetScannerAddressLimit@endAddr+1
  3912     00F2  0876               	movf	CLB1_Configure@end_address,w
  3913     00F3  00F2               	movwf	CRC_SetScannerAddressLimit@endAddr
  3914     00F4  3181  215D  3180   	fcall	_CRC_SetScannerAddressLimit
  3915     00F7                     l1331:
  3916                           
  3917                           ;mcc_generated_files/clb/src/clb1.c: 119:     CRC_StartNvmScanner();
  3918     00F7  3181  217B  3180   	fcall	_CRC_StartNvmScanner
  3919     00FA                     l1333:	
  3920                           ;mcc_generated_files/clb/src/clb1.c: 122:     while (CRC_IsScannerBusy());
  3921                           
  3922     00FA  3181  2180  3180   	fcall	_CRC_IsScannerBusy
  3923     00FD  3A00               	xorlw	0
  3924     00FE  1D03               	skipz
  3925     00FF  2901               	goto	u291
  3926     0100  2902               	goto	u290
  3927     0101                     u291:
  3928     0101  28FA               	goto	l1333
  3929     0102                     u290:
  3930     0102                     l1335:
  3931                           
  3932                           ;mcc_generated_files/clb/src/clb1.c: 125:     CRC_StopNvmScanner();
  3933     0102  3181  2176  3180   	fcall	_CRC_StopNvmScanner
  3934     0105                     l227:
  3935     0105  0008               	return
  3936     0106                     __end_of_CLB1_Configure:
  3937                           
  3938                           	psect	text11
  3939     0176                     __ptext11:	
  3940 ;; *************** function _CRC_StopNvmScanner *****************
  3941 ;; Defined at:
  3942 ;;		line 202 in file "mcc_generated_files/crc/src/crc.c"
  3943 ;; Parameters:    Size  Location     Type
  3944 ;;		None
  3945 ;; Auto vars:     Size  Location     Type
  3946 ;;		None
  3947 ;; Return value:  Size  Location     Type
  3948 ;;                  1    wreg      void 
  3949 ;; Registers used:
  3950 ;;		None
  3951 ;; Tracked objects:
  3952 ;;		On entry : 0/0
  3953 ;;		On exit  : 0/0
  3954 ;;		Unchanged: 0/0
  3955 ;; Data sizes:     COMMON   BANK0   BANK1   BANK2   BANK3   BANK4   BANK5   BANK6   BANK7   BANK8   BANK9  BANK10  BANK1
      +1  BANK12
  3956 ;;      Params:         0       0       0       0       0       0       0       0       0       0       0       0       
      +0       0
  3957 ;;      Locals:         0       0       0       0       0       0       0       0       0       0       0       0       
      +0       0
  3958 ;;      Temps:          0       0       0       0       0       0       0       0       0       0       0       0       
      +0       0
  3959 ;;      Totals:         0       0       0       0       0       0       0       0       0       0       0       0       
      +0       0
  3960 ;;Total ram usage:        0 bytes
  3961 ;; Hardware stack levels used: 1
  3962 ;; Hardware stack levels required when called: 2
  3963 ;; This function calls:
  3964 ;;		Nothing
  3965 ;; This function is called by:
  3966 ;;		_CLB1_Configure
  3967 ;; This function uses a non-reentrant model
  3968 ;;
  3969                           
  3970     0176                     _CRC_StopNvmScanner:	
  3971                           ;psect for function _CRC_StopNvmScanner
  3972                           
  3973     0176                     l927:	
  3974                           ;incstack = 0
  3975                           ; Regs used in _CRC_StopNvmScanner: []
  3976                           
  3977                           
  3978                           ;mcc_generated_files/crc/src/crc.c: 205:     SCANDPSbits.DPS = 0;
  3979     0176  0179               	movlb	57	; select bank57
  3980     0177  1019               	bcf	25,0	;volatile
  3981                           
  3982                           ;mcc_generated_files/crc/src/crc.c: 207:     SCANCON0bits.SGO = 0;
  3983     0178  1312               	bcf	18,6	;volatile
  3984                           
  3985                           ;mcc_generated_files/crc/src/crc.c: 209:      SCANCON0bits.EN = 0;
  3986     0179  1392               	bcf	18,7	;volatile
  3987     017A                     l91:
  3988     017A  0008               	return
  3989     017B                     __end_of_CRC_StopNvmScanner:
  3990                           
  3991                           	psect	text12
  3992     017B                     __ptext12:	
  3993 ;; *************** function _CRC_StartNvmScanner *****************
  3994 ;; Defined at:
  3995 ;;		line 192 in file "mcc_generated_files/crc/src/crc.c"
  3996 ;; Parameters:    Size  Location     Type
  3997 ;;		None
  3998 ;; Auto vars:     Size  Location     Type
  3999 ;;		None
  4000 ;; Return value:  Size  Location     Type
  4001 ;;                  1    wreg      void 
  4002 ;; Registers used:
  4003 ;;		None
  4004 ;; Tracked objects:
  4005 ;;		On entry : 0/0
  4006 ;;		On exit  : 0/0
  4007 ;;		Unchanged: 0/0
  4008 ;; Data sizes:     COMMON   BANK0   BANK1   BANK2   BANK3   BANK4   BANK5   BANK6   BANK7   BANK8   BANK9  BANK10  BANK1
      +1  BANK12
  4009 ;;      Params:         0       0       0       0       0       0       0       0       0       0       0       0       
      +0       0
  4010 ;;      Locals:         0       0       0       0       0       0       0       0       0       0       0       0       
      +0       0
  4011 ;;      Temps:          0       0       0       0       0       0       0       0       0       0       0       0       
      +0       0
  4012 ;;      Totals:         0       0       0       0       0       0       0       0       0       0       0       0       
      +0       0
  4013 ;;Total ram usage:        0 bytes
  4014 ;; Hardware stack levels used: 1
  4015 ;; Hardware stack levels required when called: 2
  4016 ;; This function calls:
  4017 ;;		Nothing
  4018 ;; This function is called by:
  4019 ;;		_CLB1_Configure
  4020 ;; This function uses a non-reentrant model
  4021 ;;
  4022                           
  4023     017B                     _CRC_StartNvmScanner:	
  4024                           ;psect for function _CRC_StartNvmScanner
  4025                           
  4026     017B                     l925:	
  4027                           ;incstack = 0
  4028                           ; Regs used in _CRC_StartNvmScanner: []
  4029                           
  4030                           
  4031                           ;mcc_generated_files/crc/src/crc.c: 195:      SCANCON0bits.EN = 1;
  4032     017B  0179               	movlb	57	; select bank57
  4033     017C  1792               	bsf	18,7	;volatile
  4034                           
  4035                           ;mcc_generated_files/crc/src/crc.c: 197:     SCANDPSbits.DPS = 1;
  4036     017D  1419               	bsf	25,0	;volatile
  4037                           
  4038                           ;mcc_generated_files/crc/src/crc.c: 199:     SCANCON0bits.SGO = 1;
  4039     017E  1712               	bsf	18,6	;volatile
  4040     017F                     l88:
  4041     017F  0008               	return
  4042     0180                     __end_of_CRC_StartNvmScanner:
  4043                           
  4044                           	psect	text13
  4045     015D                     __ptext13:	
  4046 ;; *************** function _CRC_SetScannerAddressLimit *****************
  4047 ;; Defined at:
  4048 ;;		line 212 in file "mcc_generated_files/crc/src/crc.c"
  4049 ;; Parameters:    Size  Location     Type
  4050 ;;  startAddr       2    0[COMMON] unsigned short 
  4051 ;;  endAddr         2    2[COMMON] unsigned short 
  4052 ;; Auto vars:     Size  Location     Type
  4053 ;;		None
  4054 ;; Return value:  Size  Location     Type
  4055 ;;                  1    wreg      void 
  4056 ;; Registers used:
  4057 ;;		wreg, status,2
  4058 ;; Tracked objects:
  4059 ;;		On entry : 0/0
  4060 ;;		On exit  : 0/0
  4061 ;;		Unchanged: 0/0
  4062 ;; Data sizes:     COMMON   BANK0   BANK1   BANK2   BANK3   BANK4   BANK5   BANK6   BANK7   BANK8   BANK9  BANK10  BANK1
      +1  BANK12
  4063 ;;      Params:         4       0       0       0       0       0       0       0       0       0       0       0       
      +0       0
  4064 ;;      Locals:         0       0       0       0       0       0       0       0       0       0       0       0       
      +0       0
  4065 ;;      Temps:          0       0       0       0       0       0       0       0       0       0       0       0       
      +0       0
  4066 ;;      Totals:         4       0       0       0       0       0       0       0       0       0       0       0       
      +0       0
  4067 ;;Total ram usage:        4 bytes
  4068 ;; Hardware stack levels used: 1
  4069 ;; Hardware stack levels required when called: 2
  4070 ;; This function calls:
  4071 ;;		Nothing
  4072 ;; This function is called by:
  4073 ;;		_CLB1_Configure
  4074 ;; This function uses a non-reentrant model
  4075 ;;
  4076                           
  4077     015D                     _CRC_SetScannerAddressLimit:	
  4078                           ;psect for function _CRC_SetScannerAddressLimit
  4079                           
  4080     015D                     l1321:	
  4081                           ;incstack = 0
  4082                           ; Regs used in _CRC_SetScannerAddressLimit: [wreg+status,2]
  4083                           
  4084                           
  4085                           ;mcc_generated_files/crc/src/crc.c: 212: void CRC_SetScannerAddressLimit(uint16_t startA
      +                          ddr, uint16_t endAddr);mcc_generated_files/crc/src/crc.c: 213: {;mcc_generated_files/crc
      +                          /src/crc.c: 214:     SCANHADRH = (uint8_t)((endAddr >> 8) & 0xFF);
  4086     015D  0873               	movf	CRC_SetScannerAddressLimit@endAddr+1,w
  4087     015E  0179               	movlb	57	; select bank57
  4088     015F  0097               	movwf	23	;volatile
  4089     0160                     l1323:
  4090                           
  4091                           ;mcc_generated_files/crc/src/crc.c: 215:     SCANHADRL = (uint8_t)(endAddr & 0xFF);
  4092     0160  0872               	movf	CRC_SetScannerAddressLimit@endAddr,w
  4093     0161  0096               	movwf	22	;volatile
  4094     0162                     l1325:
  4095                           
  4096                           ;mcc_generated_files/crc/src/crc.c: 216:     SCANLADRH = (uint8_t)((startAddr >> 8) & 0x
      +                          FF);
  4097     0162  0871               	movf	CRC_SetScannerAddressLimit@startAddr+1,w
  4098     0163  0094               	movwf	20	;volatile
  4099                           
  4100                           ;mcc_generated_files/crc/src/crc.c: 217:     SCANLADRL = (uint8_t)(startAddr & 0xFF);
  4101     0164  0870               	movf	CRC_SetScannerAddressLimit@startAddr,w
  4102     0165  0093               	movwf	19	;volatile
  4103     0166                     l94:
  4104     0166  0008               	return
  4105     0167                     __end_of_CRC_SetScannerAddressLimit:
  4106                           
  4107                           	psect	text14
  4108     0180                     __ptext14:	
  4109 ;; *************** function _CRC_IsScannerBusy *****************
  4110 ;; Defined at:
  4111 ;;		line 220 in file "mcc_generated_files/crc/src/crc.c"
  4112 ;; Parameters:    Size  Location     Type
  4113 ;;		None
  4114 ;; Auto vars:     Size  Location     Type
  4115 ;;		None
  4116 ;; Return value:  Size  Location     Type
  4117 ;;                  1    wreg      _Bool 
  4118 ;; Registers used:
  4119 ;;		wreg, status,2, status,0
  4120 ;; Tracked objects:
  4121 ;;		On entry : 0/0
  4122 ;;		On exit  : 0/0
  4123 ;;		Unchanged: 0/0
  4124 ;; Data sizes:     COMMON   BANK0   BANK1   BANK2   BANK3   BANK4   BANK5   BANK6   BANK7   BANK8   BANK9  BANK10  BANK1
      +1  BANK12
  4125 ;;      Params:         0       0       0       0       0       0       0       0       0       0       0       0       
      +0       0
  4126 ;;      Locals:         0       0       0       0       0       0       0       0       0       0       0       0       
      +0       0
  4127 ;;      Temps:          0       0       0       0       0       0       0       0       0       0       0       0       
      +0       0
  4128 ;;      Totals:         0       0       0       0       0       0       0       0       0       0       0       0       
      +0       0
  4129 ;;Total ram usage:        0 bytes
  4130 ;; Hardware stack levels used: 1
  4131 ;; Hardware stack levels required when called: 2
  4132 ;; This function calls:
  4133 ;;		Nothing
  4134 ;; This function is called by:
  4135 ;;		_CLB1_Configure
  4136 ;; This function uses a non-reentrant model
  4137 ;;
  4138                           
  4139     0180                     _CRC_IsScannerBusy:	
  4140                           ;psect for function _CRC_IsScannerBusy
  4141                           
  4142     0180                     l935:	
  4143                           ;incstack = 0
  4144                           ; Regs used in _CRC_IsScannerBusy: [wreg+status,2+status,0]
  4145                           
  4146                           
  4147                           ;mcc_generated_files/crc/src/crc.c: 222:     return(SCANCON0bits.BUSY);
  4148     0180  0179               	movlb	57	; select bank57
  4149     0181  0E12               	swapf	18,w	;volatile
  4150     0182  0C89               	rrf	9,f
  4151     0183  3901               	andlw	1
  4152     0184                     l97:
  4153     0184  0008               	return
  4154     0185                     __end_of_CRC_IsScannerBusy:
  4155                           
  4156                           	psect	intentry
  4157     0004                     __pintentry:	
  4158 ;; *************** function _INTERRUPT_InterruptManager *****************
  4159 ;; Defined at:
  4160 ;;		line 59 in file "mcc_generated_files/system/src/interrupt.c"
  4161 ;; Parameters:    Size  Location     Type
  4162 ;;		None
  4163 ;; Auto vars:     Size  Location     Type
  4164 ;;		None
  4165 ;; Return value:  Size  Location     Type
  4166 ;;                  1    wreg      void 
  4167 ;; Registers used:
  4168 ;;		status,2, status,0, pclath, cstack
  4169 ;; Tracked objects:
  4170 ;;		On entry : 0/0
  4171 ;;		On exit  : 0/0
  4172 ;;		Unchanged: 0/0
  4173 ;; Data sizes:     COMMON   BANK0   BANK1   BANK2   BANK3   BANK4   BANK5   BANK6   BANK7   BANK8   BANK9  BANK10  BANK1
      +1  BANK12
  4174 ;;      Params:         0       0       0       0       0       0       0       0       0       0       0       0       
      +0       0
  4175 ;;      Locals:         0       0       0       0       0       0       0       0       0       0       0       0       
      +0       0
  4176 ;;      Temps:          0       0       0       0       0       0       0       0       0       0       0       0       
      +0       0
  4177 ;;      Totals:         0       0       0       0       0       0       0       0       0       0       0       0       
      +0       0
  4178 ;;Total ram usage:        0 bytes
  4179 ;; Hardware stack levels used: 1
  4180 ;; Hardware stack levels required when called: 1
  4181 ;; This function calls:
  4182 ;;		_PIN_MANAGER_IOC
  4183 ;; This function is called by:
  4184 ;;		Interrupt level 1
  4185 ;; This function uses a non-reentrant model
  4186 ;;
  4187                           
  4188     0004                     _INTERRUPT_InterruptManager:
  4189                           
  4190                           ;incstack = 0
  4191     0004  147E               	bsf	int$flags,0	;set compiler interrupt flag (level 1)
  4192                           
  4193                           ; Regs used in _INTERRUPT_InterruptManager: [status,2+status,0+pclath+cstack]
  4194     0005  3180               	pagesel	$
  4195     0006                     i1l1193:
  4196                           
  4197                           ;mcc_generated_files/system/src/interrupt.c: 62:     if(PIE0bits.IOCIE == 1 && PIR0bits.
      +                          IOCIF == 1)
  4198     0006  0141               	movlb	1	; select bank1
  4199     0007  1E16               	btfss	22,4	;volatile
  4200     0008  280A               	goto	u22_21
  4201     0009  280B               	goto	u22_20
  4202     000A                     u22_21:
  4203     000A  2812               	goto	i1l280
  4204     000B                     u22_20:
  4205     000B                     i1l1195:
  4206     000B  1E0C               	btfss	12,4	;volatile
  4207     000C  280E               	goto	u23_21
  4208     000D  280F               	goto	u23_20
  4209     000E                     u23_21:
  4210     000E  2812               	goto	i1l280
  4211     000F                     u23_20:
  4212     000F                     i1l1197:
  4213                           
  4214                           ;mcc_generated_files/system/src/interrupt.c: 63:     {;mcc_generated_files/system/src/in
      +                          terrupt.c: 64:         PIN_MANAGER_IOC();
  4215     000F  3181  218C  3180   	fcall	_PIN_MANAGER_IOC
  4216     0012                     i1l280:	
  4217                           ;mcc_generated_files/system/src/interrupt.c: 65:     }
  4218                           
  4219     0012  107E               	bcf	int$flags,0	;clear compiler interrupt flag (level 1)
  4220     0013  0009               	retfie
  4221     0014                     __end_of_INTERRUPT_InterruptManager:
  4222                           
  4223                           	psect	text16
  4224     018C                     __ptext16:	
  4225 ;; *************** function _PIN_MANAGER_IOC *****************
  4226 ;; Defined at:
  4227 ;;		line 116 in file "mcc_generated_files/system/src/pins.c"
  4228 ;; Parameters:    Size  Location     Type
  4229 ;;		None
  4230 ;; Auto vars:     Size  Location     Type
  4231 ;;		None
  4232 ;; Return value:  Size  Location     Type
  4233 ;;                  1    wreg      void 
  4234 ;; Registers used:
  4235 ;;		None
  4236 ;; Tracked objects:
  4237 ;;		On entry : 0/0
  4238 ;;		On exit  : 0/0
  4239 ;;		Unchanged: 0/0
  4240 ;; Data sizes:     COMMON   BANK0   BANK1   BANK2   BANK3   BANK4   BANK5   BANK6   BANK7   BANK8   BANK9  BANK10  BANK1
      +1  BANK12
  4241 ;;      Params:         0       0       0       0       0       0       0       0       0       0       0       0       
      +0       0
  4242 ;;      Locals:         0       0       0       0       0       0       0       0       0       0       0       0       
      +0       0
  4243 ;;      Temps:          0       0       0       0       0       0       0       0       0       0       0       0       
      +0       0
  4244 ;;      Totals:         0       0       0       0       0       0       0       0       0       0       0       0       
      +0       0
  4245 ;;Total ram usage:        0 bytes
  4246 ;; Hardware stack levels used: 1
  4247 ;; This function calls:
  4248 ;;		Nothing
  4249 ;; This function is called by:
  4250 ;;		_INTERRUPT_InterruptManager
  4251 ;; This function uses a non-reentrant model
  4252 ;;
  4253                           
  4254     018C                     _PIN_MANAGER_IOC:	
  4255                           ;psect for function _PIN_MANAGER_IOC
  4256                           
  4257     018C                     i1l171:	
  4258                           ;incstack = 0
  4259                           ; Regs used in _PIN_MANAGER_IOC: []
  4260                           
  4261     018C  0008               	return
  4262     018D                     __end_of_PIN_MANAGER_IOC:
  4263     007E                     btemp	set	126	;btemp
  4264     007E                     int$flags	set	126
  4265     007E                     wtemp0	set	126
  4266                           
  4267                           	psect	config
  4268                           
  4269                           ;Config register CONFIG1 @ 0x8007
  4270                           ;	External Oscillator Selection bits
  4271                           ;	FEXTOSC = OFF, Oscillator not enabled
  4272                           ;	Reset Oscillator Selection bits
  4273                           ;	RSTOSC = HFINTOSC_1MHz, HFINTOSC (1MHz)
  4274                           ;	Clock Out Enable bit
  4275                           ;	CLKOUTEN = OFF, CLKOUT function is disabled; i/o or oscillator function on OSC2
  4276                           ;	Clock Switch Enable bit
  4277                           ;	CSWEN = ON, Writing to NOSC and NDIV is allowed
  4278                           ;	VDD Range Analog Calibration Selection bit
  4279                           ;	VDDAR = HI, Internal analog systems are calibrated for operation between VDD = 2.3 - 5
      +                          .5V
  4280                           ;	Fail-Safe Clock Monitor Enable bit
  4281                           ;	FCMEN = ON, Fail-Safe Clock Monitor enabled
  4282     8007                     	org	32775
  4283     8007  3FEC               	dw	16364
  4284                           
  4285                           ;Config register CONFIG2 @ 0x8008
  4286                           ;	Master Clear Enable bit
  4287                           ;	MCLRE = EXTMCLR, If LVP = 0, MCLR pin is MCLR; If LVP = 1, RA3 pin function is MCLR
  4288                           ;	Power-up Timer Selection bits
  4289                           ;	PWRTS = PWRT_OFF, PWRT is disabled
  4290                           ;	Low-Power BOR Enable bit
  4291                           ;	LPBOREN = OFF, ULPBOR disabled
  4292                           ;	Brown-out Reset Enable bits
  4293                           ;	BOREN = ON, Brown-out Reset enabled, SBOREN bit is ignored
  4294                           ;	DAC Buffer Automatic Range Select Enable bit
  4295                           ;	DACAUTOEN = OFF, DAC Buffer reference range is determined by the REFRNG bit
  4296                           ;	Brown-out Reset Voltage Selection bit
  4297                           ;	BORV = LO, Brown-out Reset Voltage (VBOR) set to 1.9V
  4298                           ;	PPSLOCKED One-Way Set Enable bit
  4299                           ;	PPS1WAY = ON, The PPSLOCKED bit can be cleared and set only once after an unlocking se
      +                          quence is executed; once PPSLOCKED is set, all future changes to PPS registers are preve
      +                          nted
  4300                           ;	Stack Overflow/Underflow Reset Enable bit
  4301                           ;	STVREN = ON, Stack Overflow or Underflow will cause a reset
  4302                           ;	Background Debugger
  4303                           ;	DEBUG = 0x1, unprogrammed default
  4304     8008                     	org	32776
  4305     8008  3FFF               	dw	16383
  4306                           
  4307                           ;Config register CONFIG3 @ 0x8009
  4308                           ;	WDT Period Select bits
  4309                           ;	WDTCPS = WDTCPS_31, Divider ratio 1:65536; software control of WDTPS
  4310                           ;	WDT Operating Mode bits
  4311                           ;	WDTE = OFF, WDT Disabled, SEN is ignored
  4312                           ;	WDT Window Select bits
  4313                           ;	WDTCWS = WDTCWS_7, window always open (100%); software control; keyed access not requi
      +                          red
  4314                           ;	WDT Input Clock Select bits
  4315                           ;	WDTCCS = SC, Software Control
  4316     8009                     	org	32777
  4317     8009  3F9F               	dw	16287
  4318                           
  4319                           ;Config register CONFIG4 @ 0x800A
  4320                           ;	Boot Block Size Selection bits
  4321                           ;	BBSIZE = BB512, 512 words boot block size
  4322                           ;	Boot Block Enable bit
  4323                           ;	BBEN = OFF, Boot Block disabled
  4324                           ;	Storage Area Flash (SAF) Enable bit
  4325                           ;	SAFEN = OFF, SAF disabled
  4326                           ;	Application Block Write Protection bit
  4327                           ;	WRTAPP = OFF, Application Block is NOT write-protected
  4328                           ;	Boot Block Write Protection bit
  4329                           ;	WRTB = OFF, Boot Block is NOT write-protected
  4330                           ;	Configuration Register Write Protection bit
  4331                           ;	WRTC = OFF, Configuration Register is NOT write-protected
  4332                           ;	Storage Area Flash (SAF) Write Protection bit
  4333                           ;	WRTSAF = OFF, SAF is NOT write-protected
  4334                           ;	Low Voltage Programming Enable bit
  4335                           ;	LVP = ON, Low Voltage programming enabled. MCLR/Vpp pin function is MCLR. MCLRE Config
      +                          uration bit is ignored
  4336     800A                     	org	32778
  4337     800A  3FFF               	dw	16383
  4338                           
  4339                           ;Config register CONFIG5 @ 0x800B
  4340                           ;	Program Flash Memory Code Protection bit
  4341                           ;	CP = OFF, Program Flash Memory code protection is disabled
  4342     800B                     	org	32779
  4343     800B  3FFF               	dw	16383

Data Sizes:
    Strings     0
    Constant    0
    Data        0
    BSS         6
    Persistent  32
    Stack       0

Auto Spaces:
    Space          Size  Autos    Used
    COMMON           14     11      13
    BANK0            80      0       2
    BANK1            80      0       0
    BANK2            80      0       0
    BANK3            80      0       0
    BANK4            80      0       0
    BANK5            80      0       0
    BANK6            80      0       0
    BANK7            80      0       0
    BANK8            80      0       0
    BANK9            80      0       0
    BANK10           80      0       0
    BANK11           80      0       0
    BANK12           48      0       0

Pointer List with Targets:

    INT_InterruptHandler	PTR FTN()void  size(2) Largest target is 1
		 -> INT_DefaultInterruptHandler(), NULL(), 

    INT_SetInterruptHandler@InterruptHandler	PTR FTN()void  size(2) Largest target is 1
		 -> INT_DefaultInterruptHandler(), 


Critical Paths under _main in COMMON

    _INTERRUPT_Initialize->_INT_SetInterruptHandler
    _CLB1_Initialize->_CLB1_Configure
    _CLB1_Configure->_CRC_SetScannerAddressLimit

Critical Paths under _INTERRUPT_InterruptManager in COMMON

    None.

Critical Paths under _main in BANK0

    None.

Critical Paths under _INTERRUPT_InterruptManager in BANK0

    None.

Critical Paths under _main in BANK1

    None.

Critical Paths under _INTERRUPT_InterruptManager in BANK1

    None.

Critical Paths under _main in BANK2

    None.

Critical Paths under _INTERRUPT_InterruptManager in BANK2

    None.

Critical Paths under _main in BANK3

    None.

Critical Paths under _INTERRUPT_InterruptManager in BANK3

    None.

Critical Paths under _main in BANK4

    None.

Critical Paths under _INTERRUPT_InterruptManager in BANK4

    None.

Critical Paths under _main in BANK5

    None.

Critical Paths under _INTERRUPT_InterruptManager in BANK5

    None.

Critical Paths under _main in BANK6

    None.

Critical Paths under _INTERRUPT_InterruptManager in BANK6

    None.

Critical Paths under _main in BANK7

    None.

Critical Paths under _INTERRUPT_InterruptManager in BANK7

    None.

Critical Paths under _main in BANK8

    None.

Critical Paths under _INTERRUPT_InterruptManager in BANK8

    None.

Critical Paths under _main in BANK9

    None.

Critical Paths under _INTERRUPT_InterruptManager in BANK9

    None.

Critical Paths under _main in BANK10

    None.

Critical Paths under _INTERRUPT_InterruptManager in BANK10

    None.

Critical Paths under _main in BANK11

    None.

Critical Paths under _INTERRUPT_InterruptManager in BANK11

    None.

Critical Paths under _main in BANK12

    None.

Critical Paths under _INTERRUPT_InterruptManager in BANK12

    None.

Call Graph Tables:

 ---------------------------------------------------------------------------------
 (Depth) Function   	        Calls       Base Space   Used Autos Params    Refs
 ---------------------------------------------------------------------------------
 (0) _main                                                 3     3      0     505
                                              8 COMMON     3     3      0
                  _SYSTEM_Initialize
 ---------------------------------------------------------------------------------
 (1) _SYSTEM_Initialize                                    0     0      0     481
                    _CLB1_Initialize
                   _CLOCK_Initialize
                     _CRC_Initialize
               _INTERRUPT_Initialize
                     _NVM_Initialize
             _PIN_MANAGER_Initialize
 ---------------------------------------------------------------------------------
 (2) _PIN_MANAGER_Initialize                               0     0      0       0
 ---------------------------------------------------------------------------------
 (2) _NVM_Initialize                                       0     0      0       0
                    _NVM_StatusClear
 ---------------------------------------------------------------------------------
 (3) _NVM_StatusClear                                      0     0      0       0
 ---------------------------------------------------------------------------------
 (2) _INTERRUPT_Initialize                                 0     0      0      98
            _INT_SetInterruptHandler
 ---------------------------------------------------------------------------------
 (3) _INT_SetInterruptHandler                              2     0      2      98
                                              0 COMMON     2     0      2
 ---------------------------------------------------------------------------------
 (2) _CRC_Initialize                                       0     0      0       0
 ---------------------------------------------------------------------------------
 (2) _CLOCK_Initialize                                     0     0      0       0
 ---------------------------------------------------------------------------------
 (2) _CLB1_Initialize                                      0     0      0     383
                     _CLB1_Configure
 ---------------------------------------------------------------------------------
 (3) _CLB1_Configure                                       4     2      2     383
                                              4 COMMON     4     2      2
                  _CRC_IsScannerBusy
         _CRC_SetScannerAddressLimit
                _CRC_StartNvmScanner
                 _CRC_StopNvmScanner
 ---------------------------------------------------------------------------------
 (4) _CRC_StopNvmScanner                                   0     0      0       0
 ---------------------------------------------------------------------------------
 (4) _CRC_StartNvmScanner                                  0     0      0       0
 ---------------------------------------------------------------------------------
 (4) _CRC_SetScannerAddressLimit                           4     0      4     240
                                              0 COMMON     4     0      4
 ---------------------------------------------------------------------------------
 (4) _CRC_IsScannerBusy                                    0     0      0       0
 ---------------------------------------------------------------------------------
 Estimated maximum stack depth 4
 ---------------------------------------------------------------------------------
 (Depth) Function   	        Calls       Base Space   Used Autos Params    Refs
 ---------------------------------------------------------------------------------
 (5) _INTERRUPT_InterruptManager                           0     0      0       0
                    _PIN_MANAGER_IOC
 ---------------------------------------------------------------------------------
 (6) _PIN_MANAGER_IOC                                      0     0      0       0
 ---------------------------------------------------------------------------------
 Estimated maximum stack depth 6
 ---------------------------------------------------------------------------------

 Call Graph Graphs:

 _main (ROOT)
   _SYSTEM_Initialize
     _CLB1_Initialize
       _CLB1_Configure
         _CRC_IsScannerBusy
         _CRC_SetScannerAddressLimit
         _CRC_StartNvmScanner
         _CRC_StopNvmScanner
     _CLOCK_Initialize
     _CRC_Initialize
     _INTERRUPT_Initialize
       _INT_SetInterruptHandler
     _NVM_Initialize
       _NVM_StatusClear
     _PIN_MANAGER_Initialize

 _INTERRUPT_InterruptManager (ROOT)
   _PIN_MANAGER_IOC

 Address spaces:
Name               Size   Autos  Total    Cost      Usage
BIGRAM             3F0      0       0       0        0.0%
NULL                 0      0       0       0        0.0%
CODE                 0      0       0       0        0.0%
BITCOMMON            E      0       0       1        0.0%
BITSFR0              0      0       0       1        0.0%
SFR0                 0      0       0       1        0.0%
COMMON               E      B       D       2       92.9%
BITSFR1              0      0       0       2        0.0%
SFR1                 0      0       0       2        0.0%
BITSFR2              0      0       0       3        0.0%
SFR2                 0      0       0       3        0.0%
STACK                0      0       0       3        0.0%
BITSFR3              0      0       0       4        0.0%
SFR3                 0      0       0       4        0.0%
ABS                  0      0       F       4        0.0%
BITBANK0            50      0       0       5        0.0%
BITSFR4              0      0       0       5        0.0%
SFR4                 0      0       0       5        0.0%
BANK0               50      0       2       6        2.5%
BITSFR5              0      0       0       6        0.0%
SFR5                 0      0       0       6        0.0%
BITBANK1            50      0       0       7        0.0%
BITSFR6              0      0       0       7        0.0%
SFR6                 0      0       0       7        0.0%
BANK1               50      0       0       8        0.0%
BITSFR7              0      0       0       8        0.0%
SFR7                 0      0       0       8        0.0%
BITBANK2            50      0       0       9        0.0%
BITSFR8              0      0       0       9        0.0%
SFR8                 0      0       0       9        0.0%
BANK2               50      0       0      10        0.0%
BITSFR9              0      0       0      10        0.0%
SFR9                 0      0       0      10        0.0%
BITBANK3            50      0       0      11        0.0%
BITSFR10             0      0       0      11        0.0%
SFR10                0      0       0      11        0.0%
BANK3               50      0       0      12        0.0%
BITSFR11             0      0       0      12        0.0%
SFR11                0      0       0      12        0.0%
BITBANK4            50      0       0      13        0.0%
BITSFR12             0      0       0      13        0.0%
SFR12                0      0       0      13        0.0%
BANK4               50      0       0      14        0.0%
BITSFR13             0      0       0      14        0.0%
SFR13                0      0       0      14        0.0%
BITBANK5            50      0       0      15        0.0%
BITSFR14             0      0       0      15        0.0%
SFR14                0      0       0      15        0.0%
BANK5               50      0       0      16        0.0%
BITSFR15             0      0       0      16        0.0%
SFR15                0      0       0      16        0.0%
BITBANK6            50      0       0      17        0.0%
BITSFR16             0      0       0      17        0.0%
SFR16                0      0       0      17        0.0%
BANK6               50      0       0      18        0.0%
BITSFR17             0      0       0      18        0.0%
SFR17                0      0       0      18        0.0%
BITBANK7            50      0       0      19        0.0%
BITSFR18             0      0       0      19        0.0%
SFR18                0      0       0      19        0.0%
BANK7               50      0       0      20        0.0%
BITSFR19             0      0       0      20        0.0%
SFR19                0      0       0      20        0.0%
BITBANK8            50      0       0      21        0.0%
BITSFR20             0      0       0      21        0.0%
SFR20                0      0       0      21        0.0%
BANK8               50      0       0      22        0.0%
BITSFR21             0      0       0      22        0.0%
SFR21                0      0       0      22        0.0%
BITBANK9            50      0       0      23        0.0%
BITSFR22             0      0       0      23        0.0%
SFR22                0      0       0      23        0.0%
BANK9               50      0       0      24        0.0%
BITSFR23             0      0       0      24        0.0%
SFR23                0      0       0      24        0.0%
BITBANK10           50      0       0      25        0.0%
BITSFR24             0      0       0      25        0.0%
SFR24                0      0       0      25        0.0%
BANK10              50      0       0      26        0.0%
BITSFR25             0      0       0      26        0.0%
SFR25                0      0       0      26        0.0%
BITBANK11           50      0       0      27        0.0%
BITSFR26             0      0       0      27        0.0%
SFR26                0      0       0      27        0.0%
BANK11              50      0       0      28        0.0%
BITSFR27             0      0       0      28        0.0%
SFR27                0      0       0      28        0.0%
BITBANK12           30      0       0      29        0.0%
BITSFR28             0      0       0      29        0.0%
SFR28                0      0       0      29        0.0%
BANK12              30      0       0      30        0.0%
BITSFR29             0      0       0      30        0.0%
SFR29                0      0       0      30        0.0%
BITSFR30             0      0       0      31        0.0%
SFR30                0      0       0      31        0.0%
DATA                 0      0       F      31        0.0%
BITSFR31             0      0       0      32        0.0%
SFR31                0      0       0      32        0.0%
BITSFR32             0      0       0      33        0.0%
SFR32                0      0       0      33        0.0%
BITSFR33             0      0       0      34        0.0%
SFR33                0      0       0      34        0.0%
BITSFR34             0      0       0      35        0.0%
SFR34                0      0       0      35        0.0%
BITSFR35             0      0       0      36        0.0%
SFR35                0      0       0      36        0.0%
BITSFR36             0      0       0      37        0.0%
SFR36                0      0       0      37        0.0%
BITSFR37             0      0       0      38        0.0%
SFR37                0      0       0      38        0.0%
BITSFR38             0      0       0      39        0.0%
SFR38                0      0       0      39        0.0%
BITSFR39             0      0       0      40        0.0%
SFR39                0      0       0      40        0.0%
BITSFR40             0      0       0      41        0.0%
SFR40                0      0       0      41        0.0%
BITSFR41             0      0       0      42        0.0%
SFR41                0      0       0      42        0.0%
BITSFR42             0      0       0      43        0.0%
SFR42                0      0       0      43        0.0%
BITSFR43             0      0       0      44        0.0%
SFR43                0      0       0      44        0.0%
BITSFR44             0      0       0      45        0.0%
SFR44                0      0       0      45        0.0%
BITSFR45             0      0       0      46        0.0%
SFR45                0      0       0      46        0.0%
BITSFR46             0      0       0      47        0.0%
SFR46                0      0       0      47        0.0%
BITSFR47             0      0       0      48        0.0%
SFR47                0      0       0      48        0.0%
BITSFR48             0      0       0      49        0.0%
SFR48                0      0       0      49        0.0%
BITSFR49             0      0       0      50        0.0%
SFR49                0      0       0      50        0.0%
BITSFR50             0      0       0      51        0.0%
SFR50                0      0       0      51        0.0%
BITSFR51             0      0       0      52        0.0%
SFR51                0      0       0      52        0.0%
BITSFR52             0      0       0      53        0.0%
SFR52                0      0       0      53        0.0%
BITSFR53             0      0       0      54        0.0%
SFR53                0      0       0      54        0.0%
BITSFR54             0      0       0      55        0.0%
SFR54                0      0       0      55        0.0%
BITSFR55             0      0       0      56        0.0%
SFR55                0      0       0      56        0.0%
BITSFR56             0      0       0      57        0.0%
SFR56                0      0       0      57        0.0%
BITSFR57             0      0       0      58        0.0%
SFR57                0      0       0      58        0.0%
BITSFR58             0      0       0      59        0.0%
SFR58                0      0       0      59        0.0%
BITSFR59             0      0       0      60        0.0%
SFR59                0      0       0      60        0.0%
BITSFR60             0      0       0      61        0.0%
SFR60                0      0       0      61        0.0%
BITSFR61             0      0       0      62        0.0%
SFR61                0      0       0      62        0.0%
BITSFR62             0      0       0      63        0.0%
SFR62                0      0       0      63        0.0%
BITSFR63             0      0       0      64        0.0%
SFR63                0      0       0      64        0.0%


Microchip Technology PIC Macro Assembler V2.46 build 20240104201356 
Symbol Table                                                                                   Tue Apr 02 19:09:15 2024

                                     l57 00E5                                       l91 017A  
                                     l94 0166                                       l88 017F  
                                     l97 0184                                      l212 0122  
                                    l227 0105                                      l316 0188  
                                    l168 00BB                                      l273 015C  
                                    l329 018B                                      l290 0175  
                                    l384 016F                                      l399 0151  
                                    l925 017B                                      l935 0180  
                                    l927 0176                                      l951 0189  
                                    l961 00C6                                      l953 00BC  
                                    l971 00CD                                      l963 00C7  
                                    l955 00BE                                      l981 00D2  
                                    l973 00CE                                      l965 00C8  
                                    l957 00C0                                      l991 00DB  
                                    l983 00D3                                      l975 00CF  
                                    l967 00C9                                      l959 00C2  
                                    l993 00DC                                      l985 00D4  
                                    l977 00D0                                      l969 00CB  
                                    l995 00DE                                      l987 00D9  
                                    l979 00D1                                      l997 00DF  
                                    l989 00DA                                      l999 00E0  
                                    u317 012E                                      u290 0102  
                                    u291 0101                                      wreg 0009  
                     _CRC_StopNvmScanner 0176                                     l1001 00E1  
                                   l1011 008F                                     l1003 0085  
                                   l1021 00A0                                     l1013 0092  
                                   l1005 0089                                     l1031 00AB  
                                   l1023 00A2                                     l1015 0094  
                                   l1007 008B                                     l1033 00AD  
                                   l1025 00A4                                     l1017 009C  
                                   l1009 008D                                     l1035 00AF  
                                   l1027 00A6                                     l1019 009E  
                                   l1029 00A8                                     l1321 015D  
                                   l1081 016E                                     l1073 0185  
                                   l1323 0160                                     l1331 00F7  
                                   l1075 0167                                     l1325 0162  
                                   l1333 00FA                                     l1341 0108  
                                   l1077 016A                                     l1335 0102  
                                   l1327 00E6                                     l1351 0115  
                                   l1343 010F                                     l1079 016B  
                                   l1329 00EC                                     l1361 011B  
                                   l1353 0116                                     l1345 0112  
                                   l1337 0170                                     l1363 011C  
                                   l1355 0118                                     l1347 0113  
                                   l1339 0106                                     l1371 0152  
                                   l1365 011D                                     l1357 0119  
                                   l1349 0114                                     l1373 0155  
                                   l1367 011E                                     l1359 011A  
                                   l1375 013F                                     l1391 0126  
                                   l1369 011F                                     l1377 014B  
                                   l1393 0128                                     l1379 014E  
                                   l1395 0129                                     l1397 0134  
                                   l1389 0123                                     l1399 0138  
                                   _LATA 0018                                     _LATB 0019  
                                   _LATC 001A                                     _WPUA 1E8D  
                                   _WPUB 1E97                                     _WPUC 1EA1  
                __end_of_NVM_StatusClear 018C                                     _main 0123  
                                   btemp 007E                             _unlockKeyLow 007C  
            _INT_DefaultInterruptHandler 0000                      ?_CRC_StopNvmScanner 0070  
                                   start 0014          __end_of_INT_SetInterruptHandler 0176  
                                  ?_main 0070                     ??_CRC_StopNvmScanner 0070  
                                  _IOCAF 1E93                                    _IOCBF 1E9D  
                                  _IOCCF 1EA7                                    _IOCAN 1E92  
                                  _IOCAP 1E91                                    _IOCBN 1E9C  
                                  _IOCBP 1E9B                                    _IOCCN 1EA6  
                                  _IOCCP 1EA5                                    i1l171 018C  
                                  i1l280 0012                                    _OSCEN 0291  
                                  u22_20 000B                                    u22_21 000A  
                                  u23_20 000F                                    u23_21 000E  
                                  _TRISA 0012                                    _TRISB 0013  
                                  _TRISC 0014                  __end_of_PIN_MANAGER_IOC 018D  
                          _unlockKeyHigh 007B                                    wtemp0 007E  
                        __initialization 0016                             __end_of_main 013F  
            ?_INTERRUPT_InterruptManager 0070                         ??_CRC_Initialize 0070  
                                 ??_main 0078                          _CLB1_Initialize 0106  
                                 _CLBCLK 0515                                   _CLBCON 050C  
                                 _ANSELA 1E8C                                   _ANSELB 1E96  
                                 _ANSELC 1EA0                                   _RC0PPS 1D9C  
                                 _RC1PPS 1D9D                                   _RC2PPS 1D9E  
                                 _RC3PPS 1D9F                                   i1l1193 0006  
                                 _ODCONA 1E8E                                   _ODCONB 1E98  
                                 i1l1195 000B                                   _ODCONC 1EA2  
                                 i1l1197 000F                                   _INLVLA 1E90  
                                 _INLVLB 1E9A                                   _INLVLC 1EA4  
                                 _OSCFRQ 0293                         ?_NVM_StatusClear 0070  
                      ?_CLOCK_Initialize 0070                       ??_CLOCK_Initialize 0070  
INT_SetInterruptHandler@InterruptHandler 0070                         ?_PIN_MANAGER_IOC 0070  
                       ??_NVM_Initialize 0070                        _SYSTEM_Initialize 013F  
                __end_of__initialization 001B                       ?_SYSTEM_Initialize 0070  
                         __pcstackCOMMON 0070                      ??_SYSTEM_Initialize 0078  
                __end_of_CLB1_Initialize 0123                __end_of_SYSTEM_Initialize 0152  
                             __pbssBANK0 0020                               __pmaintext 0123  
                             __pintentry 0004                                  _CRCCON0 1CA5  
                                _CRCCON1 1CA6                                  _CRCCON2 1CA7  
                                _CRCOUTH 1CA2                                  _CRCOUTL 1CA1  
                                _CRCOUTT 1CA4                                  _CRCOUTU 1CA3  
                                _CRCXORH 1CA2                                  _CRCXORL 1CA1  
                                _CRCXORT 1CA4                                  _CRCXORU 1CA3  
                                _OSCCON1 028D                                  _OSCCON3 028F  
                                _NVMADRH 1C8D                                  _NVMADRL 1C8C  
                                _NVMDATH 1C8F                                  _OSCTUNE 0292  
                                _NVMDATL 1C8E                                  _NVMCON2 1C91  
                                _SLRCONA 1E8F                                  _SLRCONB 1E99  
                                _SLRCONC 1EA3                                  __ptext1 013F  
                                __ptext2 0085                                  __ptext3 0185  
                                __ptext4 0189                                  __ptext5 0152  
                                __ptext6 0170                                  __ptext7 00BC  
                                __ptext8 0167                                  __ptext9 0106  
                       ?_CLB1_Initialize 0070                 ??_PIN_MANAGER_Initialize 0070  
                _INT_SetInterruptHandler 0170                                  main@cnt 007A  
                   end_of_initialization 001B                                _SCANHADRH 1C97  
                              _SCANHADRL 1C96                                _SCANLADRH 1C94  
                              _SCANLADRL 1C93             ??_CRC_SetScannerAddressLimit 0074  
           __end_of_INTERRUPT_Initialize 015D                ??_INT_SetInterruptHandler 0072  
                         _CLB1_Configure 00E6                      start_initialization 0016  
                           _SCANCON0bits 1C92                      _CRC_StartNvmScanner 017B  
                   ?_CRC_StartNvmScanner 0070                   __end_of_CLB1_Configure 0106  
                            __pbssCOMMON 007B                                ___latbits 0002  
                            _CRCCON0bits 1CA5                              _CRCCON1bits 1CA6  
              CLB1_Configure@end_address 0076                   _PIN_MANAGER_Initialize 0085  
                  ??_CRC_StartNvmScanner 0070             ??_INTERRUPT_InterruptManager 0070  
     __end_of_CRC_SetScannerAddressLimit 0167               _CRC_SetScannerAddressLimit 015D  
                        ?_CLB1_Configure 0074                        ??_NVM_StatusClear 0070  
                               _CLBSWINH 050E                                 _CLBSWINL 0510  
                               _CLBSWINM 050F                                 _CLBSWINU 050D  
                               _CRCDATAH 1C9E                                 _CRCDATAL 1C9D  
                               _CRCDATAT 1CA0                                 _CRCDATAU 1C9F  
                   _INTERRUPT_Initialize 0152                         _CLOCK_Initialize 0167  
                               _SCANCON0 1C92                                 _PIE0bits 0096  
                               _PIE1bits 0097                                 _SCANTRIG 1C9A  
                               _PIE7bits 009D                                 _PIR0bits 008C  
                               _PIR1bits 008D                         _start_clb_config 001F  
                               _PIR7bits 0093      CRC_SetScannerAddressLimit@startAddr 0070  
                      ??_PIN_MANAGER_IOC 0070               __end_of_CRC_StopNvmScanner 017B  
      CRC_SetScannerAddressLimit@endAddr 0072                           _CRC_Initialize 00BC  
                  ?_INTERRUPT_Initialize 0070                              _SCANDPSbits 1C99  
                             _CLBCONbits 050C                        _CRC_IsScannerBusy 0180  
                             _CLBPPSCON1 0519                               _CLBPPSCON2 0518  
                             _CLBPPSCON3 0517                               _CLBPPSCON4 0516  
                     ?_CRC_IsScannerBusy 0070                      ??_CRC_IsScannerBusy 0070  
                 __end_of_CRC_Initialize 00E6                                 __ptext10 00E6  
                               __ptext11 0176                                 __ptext12 017B  
                               __ptext13 015D                                 __ptext14 0180  
                               __ptext16 018C                __end_of_CRC_IsScannerBusy 0185  
                         _NVM_Initialize 0185                                 int$flags 007E  
     __end_of_INTERRUPT_InterruptManager 0014               _INTERRUPT_InterruptManager 0004  
                             _INTCONbits 000B                          ?_CRC_Initialize 0070  
                            _NVMCON1bits 1C90                     _INT_InterruptHandler 0020  
                 ??_INTERRUPT_Initialize 0072                                 intlevel1 0000  
                ?_PIN_MANAGER_Initialize 0070                   __end_of_NVM_Initialize 0189  
                      ??_CLB1_Initialize 0078                          _NVM_StatusClear 0189  
                       ??_CLB1_Configure 0076                 ?_INT_SetInterruptHandler 0070  
               __end_of_CLOCK_Initialize 0170              ?_CRC_SetScannerAddressLimit 0070  
            CLB1_Configure@start_address 0074           __end_of_PIN_MANAGER_Initialize 00BC  
                        _PIN_MANAGER_IOC 018C                          ?_NVM_Initialize 0070  
            __end_of_CRC_StartNvmScanner 0180  
